

Microchip MPLAB XC8 Assembler V2.35 build 20211206165544 
                                                                                               Wed Apr 27 18:18:36 2022

Microchip MPLAB XC8 C Compiler v2.35 (Free license) build 20211206165544 Og1 
     1                           	processor	16F887
     2                           	pagewidth 120
     3                           	opt	flic
     4                           	psect	cinit,global,class=CODE,merge=1,delta=2
     5                           	psect	bssBANK1,global,class=BANK1,space=1,delta=1,noexec
     6                           	psect	cstackBANK1,global,class=BANK1,space=1,delta=1,noexec
     7                           	psect	cstackCOMMON,global,class=COMMON,space=1,delta=1,noexec
     8                           	psect	cstackBANK0,global,class=BANK0,space=1,delta=1,noexec
     9                           	psect	maintext,global,class=CODE,split=1,delta=2
    10                           	psect	text1,local,class=CODE,merge=1,delta=2
    11                           	psect	text2,local,class=CODE,merge=1,delta=2
    12                           	psect	intentry,global,class=CODE,delta=2
    13                           	psect	text3,local,class=CODE,merge=1,delta=2
    14                           	psect	text4,local,class=CODE,merge=1,delta=2,group=1
    15                           	psect	text5,local,class=CODE,merge=1,delta=2,group=1
    16                           	psect	text6,local,class=CODE,merge=1,delta=2,group=1
    17                           	psect	text7,local,class=CODE,merge=1,delta=2,group=1
    18                           	psect	text8,local,class=CODE,merge=1,delta=2,group=1
    19                           	psect	text9,local,class=CODE,merge=1,delta=2,group=1
    20                           	psect	idloc,global,abs,ovrld,class=IDLOC,space=5,delta=2,noexec
    21                           	psect	config,global,abs,ovrld,class=CONFIG,space=4,delta=2,noexec
    22                           	dabs	1,0x7E,2
    23  0000                     
    24                           ; Version 2.40
    25                           ; Generated 17/11/2021 GMT
    26                           ; 
    27                           ; Copyright © 2021, Microchip Technology Inc. and its subsidiaries ("Microchip")
    28                           ; All rights reserved.
    29                           ; 
    30                           ; This software is developed by Microchip Technology Inc. and its subsidiaries ("Microch
      +                          ip").
    31                           ; 
    32                           ; Redistribution and use in source and binary forms, with or without modification, are
    33                           ; permitted provided that the following conditions are met:
    34                           ; 
    35                           ;     1. Redistributions of source code must retain the above copyright notice, this lis
      +                          t of
    36                           ;        conditions and the following disclaimer.
    37                           ; 
    38                           ;     2. Redistributions in binary form must reproduce the above copyright notice, this 
      +                          list
    39                           ;        of conditions and the following disclaimer in the documentation and/or other
    40                           ;        materials provided with the distribution. Publication is not required when
    41                           ;        this file is used in an embedded application.
    42                           ; 
    43                           ;     3. Microchip's name may not be used to endorse or promote products derived from th
      +                          is
    44                           ;        software without specific prior written permission.
    45                           ; 
    46                           ; THIS SOFTWARE IS PROVIDED BY MICROCHIP "AS IS" AND ANY EXPRESS OR IMPLIED WARRANTIES,
    47                           ; INCLUDING, BUT NOT LIMITED TO, THE IMPLIED WARRANTIES OF MERCHANTABILITY AND FITNESS F
      +                          OR
    48                           ; PURPOSE ARE DISCLAIMED.  IN NO EVENT SHALL MICROCHIP BE LIABLE FOR ANY DIRECT, INDIREC
      +                          T,
    49                           ; INCIDENTAL, SPECIAL, EXEMPLARY, OR CONSEQUENTIAL DAMAGES (INCLUDING BUT NOT LIMITED TO
    50                           ; PROCUREMENT OF SUBSTITUTE GOODS OR SERVICES; LOSS OF USE, DATA OR PROFITS; OR BUSINESS
    51                           ; INTERRUPTION) HOWSOEVER CAUSED AND ON ANY THEORY OF LIABILITY, WHETHER IN CONTRACT, ST
      +                          RICT
    52                           ; LIABILITY, OR TORT (INCLUDING NEGLIGENCE OR OTHERWISE) ARISING IN ANY WAY OUT OF THE U
      +                          SE OF
    53                           ; THIS SOFTWARE, EVEN IF ADVISED OF THE POSSIBILITY OF SUCH DAMAGE.
    54                           ; 
    55                           ; 
    56                           ; Code-generator required, PIC16F887 Definitions
    57                           ; 
    58                           ; SFR Addresses
    59  0000                     	;# 
    60  0001                     	;# 
    61  0002                     	;# 
    62  0003                     	;# 
    63  0004                     	;# 
    64  0005                     	;# 
    65  0006                     	;# 
    66  0007                     	;# 
    67  0008                     	;# 
    68  0009                     	;# 
    69  000A                     	;# 
    70  000B                     	;# 
    71  000C                     	;# 
    72  000D                     	;# 
    73  000E                     	;# 
    74  000E                     	;# 
    75  000F                     	;# 
    76  0010                     	;# 
    77  0011                     	;# 
    78  0012                     	;# 
    79  0013                     	;# 
    80  0014                     	;# 
    81  0015                     	;# 
    82  0015                     	;# 
    83  0016                     	;# 
    84  0017                     	;# 
    85  0018                     	;# 
    86  0019                     	;# 
    87  001A                     	;# 
    88  001B                     	;# 
    89  001B                     	;# 
    90  001C                     	;# 
    91  001D                     	;# 
    92  001E                     	;# 
    93  001F                     	;# 
    94  0081                     	;# 
    95  0085                     	;# 
    96  0086                     	;# 
    97  0087                     	;# 
    98  0088                     	;# 
    99  0089                     	;# 
   100  008C                     	;# 
   101  008D                     	;# 
   102  008E                     	;# 
   103  008F                     	;# 
   104  0090                     	;# 
   105  0091                     	;# 
   106  0092                     	;# 
   107  0093                     	;# 
   108  0093                     	;# 
   109  0093                     	;# 
   110  0094                     	;# 
   111  0095                     	;# 
   112  0096                     	;# 
   113  0097                     	;# 
   114  0098                     	;# 
   115  0099                     	;# 
   116  009A                     	;# 
   117  009B                     	;# 
   118  009C                     	;# 
   119  009D                     	;# 
   120  009E                     	;# 
   121  009F                     	;# 
   122  0105                     	;# 
   123  0107                     	;# 
   124  0108                     	;# 
   125  0109                     	;# 
   126  010C                     	;# 
   127  010C                     	;# 
   128  010D                     	;# 
   129  010E                     	;# 
   130  010F                     	;# 
   131  0185                     	;# 
   132  0187                     	;# 
   133  0188                     	;# 
   134  0189                     	;# 
   135  018C                     	;# 
   136  018D                     	;# 
   137  0000                     	;# 
   138  0001                     	;# 
   139  0002                     	;# 
   140  0003                     	;# 
   141  0004                     	;# 
   142  0005                     	;# 
   143  0006                     	;# 
   144  0007                     	;# 
   145  0008                     	;# 
   146  0009                     	;# 
   147  000A                     	;# 
   148  000B                     	;# 
   149  000C                     	;# 
   150  000D                     	;# 
   151  000E                     	;# 
   152  000E                     	;# 
   153  000F                     	;# 
   154  0010                     	;# 
   155  0011                     	;# 
   156  0012                     	;# 
   157  0013                     	;# 
   158  0014                     	;# 
   159  0015                     	;# 
   160  0015                     	;# 
   161  0016                     	;# 
   162  0017                     	;# 
   163  0018                     	;# 
   164  0019                     	;# 
   165  001A                     	;# 
   166  001B                     	;# 
   167  001B                     	;# 
   168  001C                     	;# 
   169  001D                     	;# 
   170  001E                     	;# 
   171  001F                     	;# 
   172  0081                     	;# 
   173  0085                     	;# 
   174  0086                     	;# 
   175  0087                     	;# 
   176  0088                     	;# 
   177  0089                     	;# 
   178  008C                     	;# 
   179  008D                     	;# 
   180  008E                     	;# 
   181  008F                     	;# 
   182  0090                     	;# 
   183  0091                     	;# 
   184  0092                     	;# 
   185  0093                     	;# 
   186  0093                     	;# 
   187  0093                     	;# 
   188  0094                     	;# 
   189  0095                     	;# 
   190  0096                     	;# 
   191  0097                     	;# 
   192  0098                     	;# 
   193  0099                     	;# 
   194  009A                     	;# 
   195  009B                     	;# 
   196  009C                     	;# 
   197  009D                     	;# 
   198  009E                     	;# 
   199  009F                     	;# 
   200  0105                     	;# 
   201  0107                     	;# 
   202  0108                     	;# 
   203  0109                     	;# 
   204  010C                     	;# 
   205  010C                     	;# 
   206  010D                     	;# 
   207  010E                     	;# 
   208  010F                     	;# 
   209  0185                     	;# 
   210  0187                     	;# 
   211  0188                     	;# 
   212  0189                     	;# 
   213  018C                     	;# 
   214  018D                     	;# 
   215  000B                     _INTCONbits	set	11
   216  0012                     _T2CONbits	set	18
   217  001D                     _CCP2CON	set	29
   218  0017                     _CCP1CON	set	23
   219  0005                     _PORTA	set	5
   220  001D                     _CCP2CONbits	set	29
   221  001B                     _CCPR2L	set	27
   222  0017                     _CCP1CONbits	set	23
   223  0015                     _CCPR1L	set	21
   224  001E                     _ADRESH	set	30
   225  001F                     _ADCON0bits	set	31
   226  000C                     _PIR1bits	set	12
   227  008C                     _PIE1bits	set	140
   228  0092                     _PR2	set	146
   229  0087                     _TRISCbits	set	135
   230  009F                     _ADCON1bits	set	159
   231  0085                     _TRISA	set	133
   232  008F                     _OSCCONbits	set	143
   233  0189                     _ANSELH	set	393
   234  0188                     _ANSEL	set	392
   235                           
   236                           	psect	cinit
   237  0013                     start_initialization:	
   238                           ; #config settings
   239                           
   240  0013                     __initialization:
   241                           
   242                           ; Clear objects allocated to BANK1
   243  0013  1683               	bsf	3,5	;RP0=1, select bank1
   244  0014  1303               	bcf	3,6	;RP1=0, select bank1
   245  0015  01B1               	clrf	__pbssBANK1& (0+127)
   246  0016  01B2               	clrf	(__pbssBANK1+1)& (0+127)
   247  0017  01B3               	clrf	(__pbssBANK1+2)& (0+127)
   248  0018  01B4               	clrf	(__pbssBANK1+3)& (0+127)
   249  0019                     end_of_initialization:	
   250                           ;End of C runtime variable initialization code
   251                           
   252  0019                     __end_of__initialization:
   253  0019  0183               	clrf	3
   254  001A  120A  158A  2CB4   	ljmp	_main	;jump to C main() function
   255                           
   256                           	psect	bssBANK1
   257  00B1                     __pbssBANK1:
   258  00B1                     _CCPR_2:
   259  00B1                     	ds	2
   260  00B3                     _CCPR:
   261  00B3                     	ds	2
   262                           
   263                           	psect	cstackBANK1
   264  00A0                     __pcstackBANK1:
   265  00A0                     ??___fltol:
   266                           
   267                           ; 1 bytes @ 0x0
   268  00A0                     	ds	5
   269  00A5                     ?_map:
   270  00A5                     map@x0:	
   271                           ; 2 bytes @ 0x5
   272                           
   273                           
   274                           ; 1 bytes @ 0x5
   275  00A5                     	ds	1
   276  00A6                     map@x1:
   277                           
   278                           ; 1 bytes @ 0x6
   279  00A6                     	ds	1
   280  00A7                     map@y0:
   281                           
   282                           ; 2 bytes @ 0x7
   283  00A7                     	ds	2
   284  00A9                     map@y1:
   285                           
   286                           ; 2 bytes @ 0x9
   287  00A9                     	ds	2
   288  00AB                     ??_isr:
   289                           
   290                           ; 1 bytes @ 0xB
   291  00AB                     	ds	5
   292  00B0                     ??_setup:
   293  00B0                     ??_main:	
   294                           ; 1 bytes @ 0x10
   295                           
   296                           
   297                           ; 1 bytes @ 0x10
   298  00B0                     	ds	1
   299                           
   300                           	psect	cstackCOMMON
   301  0070                     __pcstackCOMMON:
   302  0070                     ?_setup:
   303  0070                     ?_isr:	
   304                           ; 1 bytes @ 0x0
   305                           
   306  0070                     ?_main:	
   307                           ; 1 bytes @ 0x0
   308                           
   309  0070                     ?__Umul8_16:	
   310                           ; 1 bytes @ 0x0
   311                           
   312  0070                     ?___xxtofl:	
   313                           ; 2 bytes @ 0x0
   314                           
   315  0070                     __Umul8_16@multiplicand:	
   316                           ; 4 bytes @ 0x0
   317                           
   318  0070                     ___xxtofl@val:	
   319                           ; 1 bytes @ 0x0
   320                           
   321                           
   322                           ; 4 bytes @ 0x0
   323  0070                     	ds	2
   324  0072                     ??__Umul8_16:
   325                           
   326                           ; 1 bytes @ 0x2
   327  0072                     	ds	2
   328  0074                     ??___xxtofl:
   329  0074                     __Umul8_16@product:	
   330                           ; 1 bytes @ 0x4
   331                           
   332                           
   333                           ; 2 bytes @ 0x4
   334  0074                     	ds	2
   335  0076                     __Umul8_16@word_mpld:
   336                           
   337                           ; 2 bytes @ 0x6
   338  0076                     	ds	2
   339  0078                     __Umul8_16@multiplier:
   340  0078                     ___xxtofl@sign:	
   341                           ; 1 bytes @ 0x8
   342                           
   343                           
   344                           ; 1 bytes @ 0x8
   345  0078                     	ds	1
   346  0079                     ___xxtofl@exp:
   347                           
   348                           ; 1 bytes @ 0x9
   349  0079                     	ds	1
   350  007A                     ___xxtofl@arg:
   351                           
   352                           ; 4 bytes @ 0xA
   353  007A                     	ds	4
   354  007E                     ??_map:
   355                           
   356                           	psect	cstackBANK0
   357  0020                     __pcstackBANK0:	
   358                           ; 1 bytes @ 0xE
   359                           
   360  0020                     ?___fldiv:
   361  0020                     ___fldiv@a:	
   362                           ; 4 bytes @ 0x0
   363                           
   364                           
   365                           ; 4 bytes @ 0x0
   366  0020                     	ds	4
   367  0024                     ___fldiv@b:
   368                           
   369                           ; 4 bytes @ 0x4
   370  0024                     	ds	4
   371  0028                     ??___fldiv:
   372                           
   373                           ; 1 bytes @ 0x8
   374  0028                     	ds	5
   375  002D                     ___fldiv@rem:
   376                           
   377                           ; 4 bytes @ 0xD
   378  002D                     	ds	4
   379  0031                     ___fldiv@sign:
   380                           
   381                           ; 1 bytes @ 0x11
   382  0031                     	ds	1
   383  0032                     ___fldiv@new_exp:
   384                           
   385                           ; 2 bytes @ 0x12
   386  0032                     	ds	2
   387  0034                     ___fldiv@grs:
   388                           
   389                           ; 4 bytes @ 0x14
   390  0034                     	ds	4
   391  0038                     ___fldiv@bexp:
   392                           
   393                           ; 1 bytes @ 0x18
   394  0038                     	ds	1
   395  0039                     ___fldiv@aexp:
   396                           
   397                           ; 1 bytes @ 0x19
   398  0039                     	ds	1
   399  003A                     ?___flmul:
   400  003A                     ___flmul@b:	
   401                           ; 4 bytes @ 0x1A
   402                           
   403                           
   404                           ; 4 bytes @ 0x1A
   405  003A                     	ds	4
   406  003E                     ___flmul@a:
   407                           
   408                           ; 4 bytes @ 0x1E
   409  003E                     	ds	4
   410  0042                     ??___flmul:
   411                           
   412                           ; 1 bytes @ 0x22
   413  0042                     	ds	5
   414  0047                     ___flmul@sign:
   415                           
   416                           ; 1 bytes @ 0x27
   417  0047                     	ds	1
   418  0048                     ___flmul@grs:
   419                           
   420                           ; 4 bytes @ 0x28
   421  0048                     	ds	4
   422  004C                     ___flmul@aexp:
   423                           
   424                           ; 1 bytes @ 0x2C
   425  004C                     	ds	1
   426  004D                     ___flmul@bexp:
   427                           
   428                           ; 1 bytes @ 0x2D
   429  004D                     	ds	1
   430  004E                     ___flmul@prod:
   431                           
   432                           ; 4 bytes @ 0x2E
   433  004E                     	ds	4
   434  0052                     ___flmul@temp:
   435                           
   436                           ; 2 bytes @ 0x32
   437  0052                     	ds	2
   438  0054                     ?___fladd:
   439  0054                     ___fladd@b:	
   440                           ; 4 bytes @ 0x34
   441                           
   442                           
   443                           ; 4 bytes @ 0x34
   444  0054                     	ds	4
   445  0058                     ___fladd@a:
   446                           
   447                           ; 4 bytes @ 0x38
   448  0058                     	ds	4
   449  005C                     ??___fladd:
   450                           
   451                           ; 1 bytes @ 0x3C
   452  005C                     	ds	8
   453  0064                     ___fladd@signs:
   454                           
   455                           ; 1 bytes @ 0x44
   456  0064                     	ds	1
   457  0065                     ___fladd@aexp:
   458                           
   459                           ; 1 bytes @ 0x45
   460  0065                     	ds	1
   461  0066                     ___fladd@bexp:
   462                           
   463                           ; 1 bytes @ 0x46
   464  0066                     	ds	1
   465  0067                     ___fladd@grs:
   466                           
   467                           ; 1 bytes @ 0x47
   468  0067                     	ds	1
   469  0068                     ?___fltol:
   470  0068                     ___fltol@f1:	
   471                           ; 4 bytes @ 0x48
   472                           
   473                           
   474                           ; 4 bytes @ 0x48
   475  0068                     	ds	4
   476  006C                     ___fltol@sign1:
   477                           
   478                           ; 1 bytes @ 0x4C
   479  006C                     	ds	1
   480  006D                     ___fltol@exp1:
   481                           
   482                           ; 1 bytes @ 0x4D
   483  006D                     	ds	1
   484  006E                     map@x:
   485                           
   486                           ; 1 bytes @ 0x4E
   487  006E                     	ds	1
   488                           
   489                           	psect	maintext
   490  0CB4                     __pmaintext:	
   491 ;;
   492 ;;Main: autosize = 0, tempsize = 1, incstack = 0, save=0
   493 ;;
   494 ;; *************** function _main *****************
   495 ;; Defined at:
   496 ;;		line 79 in file "main_Lab.c"
   497 ;; Parameters:    Size  Location     Type
   498 ;;		None
   499 ;; Auto vars:     Size  Location     Type
   500 ;;		None
   501 ;; Return value:  Size  Location     Type
   502 ;;                  1    wreg      void 
   503 ;; Registers used:
   504 ;;		wreg, status,2, status,0, pclath, cstack
   505 ;; Tracked objects:
   506 ;;		On entry : B00/0
   507 ;;		On exit  : 0/0
   508 ;;		Unchanged: 0/0
   509 ;; Data sizes:     COMMON   BANK0   BANK1   BANK3   BANK2
   510 ;;      Params:         0       0       0       0       0
   511 ;;      Locals:         0       0       0       0       0
   512 ;;      Temps:          0       0       1       0       0
   513 ;;      Totals:         0       0       1       0       0
   514 ;;Total ram usage:        1 bytes
   515 ;; Hardware stack levels required when called: 5
   516 ;; This function calls:
   517 ;;		_setup
   518 ;; This function is called by:
   519 ;;		Startup code after reset
   520 ;; This function uses a non-reentrant model
   521 ;;
   522                           
   523  0CB4                     _main:	
   524                           ;psect for function _main
   525                           
   526  0CB4                     l1984:	
   527                           ;incstack = 0
   528                           ; Regs used in _main: [wreg+status,2+status,0+pclath+cstack]
   529                           
   530                           
   531                           ;main_Lab.c: 81:     setup();
   532  0CB4  120A  158A  24EC  120A  158A  	fcall	_setup
   533  0CB9                     l1986:
   534                           
   535                           ;main_Lab.c: 84:     {;main_Lab.c: 85:        if(ADCON0bits.GO == 0){
   536  0CB9  1283               	bcf	3,5	;RP0=0, select bank0
   537  0CBA  1303               	bcf	3,6	;RP1=0, select bank0
   538  0CBB  189F               	btfsc	31,1	;volatile
   539  0CBC  2CBE               	goto	u2901
   540  0CBD  2CBF               	goto	u2900
   541  0CBE                     u2901:
   542  0CBE  2CB9               	goto	l1986
   543  0CBF                     u2900:
   544  0CBF                     l1988:
   545                           
   546                           ;main_Lab.c: 86:             if(ADCON0bits.CHS == 0)
   547  0CBF  0C1F               	rrf	31,w	;volatile
   548  0CC0  1683               	bsf	3,5	;RP0=1, select bank1
   549  0CC1  1303               	bcf	3,6	;RP1=0, select bank1
   550  0CC2  00B0               	movwf	??_main^(0+128)
   551  0CC3  0C30               	rrf	??_main^(0+128),w
   552  0CC4  390F               	andlw	15
   553  0CC5  3A00               	xorlw	0
   554  0CC6  1D03               	skipz
   555  0CC7  2CC9               	goto	u2911
   556  0CC8  2CCA               	goto	u2910
   557  0CC9                     u2911:
   558  0CC9  2CD1               	goto	l1992
   559  0CCA                     u2910:
   560  0CCA                     l1990:
   561                           
   562                           ;main_Lab.c: 87:                  ADCON0bits.CHS = 1;
   563  0CCA  1283               	bcf	3,5	;RP0=0, select bank0
   564  0CCB  1303               	bcf	3,6	;RP1=0, select bank0
   565  0CCC  081F               	movf	31,w	;volatile
   566  0CCD  39C3               	andlw	-61
   567  0CCE  3804               	iorlw	4
   568  0CCF  009F               	movwf	31	;volatile
   569  0CD0  2CE2               	goto	l1996
   570  0CD1                     l1992:
   571  0CD1  1283               	bcf	3,5	;RP0=0, select bank0
   572  0CD2  1303               	bcf	3,6	;RP1=0, select bank0
   573  0CD3  0C1F               	rrf	31,w	;volatile
   574  0CD4  1683               	bsf	3,5	;RP0=1, select bank1
   575  0CD5  1303               	bcf	3,6	;RP1=0, select bank1
   576  0CD6  00B0               	movwf	??_main^(0+128)
   577  0CD7  0C30               	rrf	??_main^(0+128),w
   578  0CD8  390F               	andlw	15
   579  0CD9  3A01               	xorlw	1
   580  0CDA  1D03               	skipz
   581  0CDB  2CDD               	goto	u2921
   582  0CDC  2CDE               	goto	u2920
   583  0CDD                     u2921:
   584  0CDD  2CE2               	goto	l1996
   585  0CDE                     u2920:
   586  0CDE                     l1994:
   587                           
   588                           ;main_Lab.c: 89:                  ADCON0bits.CHS = 0;
   589  0CDE  30C3               	movlw	-61
   590  0CDF  1283               	bcf	3,5	;RP0=0, select bank0
   591  0CE0  1303               	bcf	3,6	;RP1=0, select bank0
   592  0CE1  059F               	andwf	31,f	;volatile
   593  0CE2                     l1996:
   594                           
   595                           ;main_Lab.c: 91:         _delay((unsigned long)((40)*(500000/4000000.0)));
   596  0CE2  2CE3               	nop2	;2 cycle nop
   597  0CE3  2CE4               	nop2	;2 cycle nop
   598  0CE4  0000               	nop
   599  0CE5                     l1998:
   600                           
   601                           ;main_Lab.c: 92:         ADCON0bits.GO = 1;
   602  0CE5  1283               	bcf	3,5	;RP0=0, select bank0
   603  0CE6  1303               	bcf	3,6	;RP1=0, select bank0
   604  0CE7  149F               	bsf	31,1	;volatile
   605  0CE8  2CB9               	goto	l1986
   606  0CE9  120A  118A  2810   	ljmp	start
   607  0CEC                     __end_of_main:
   608                           
   609                           	psect	text1
   610  0CEC                     __ptext1:	
   611 ;; *************** function _setup *****************
   612 ;; Defined at:
   613 ;;		line 97 in file "main_Lab.c"
   614 ;; Parameters:    Size  Location     Type
   615 ;;		None
   616 ;; Auto vars:     Size  Location     Type
   617 ;;		None
   618 ;; Return value:  Size  Location     Type
   619 ;;                  1    wreg      void 
   620 ;; Registers used:
   621 ;;		wreg, status,2, status,0
   622 ;; Tracked objects:
   623 ;;		On entry : 0/0
   624 ;;		On exit  : 0/0
   625 ;;		Unchanged: 0/0
   626 ;; Data sizes:     COMMON   BANK0   BANK1   BANK3   BANK2
   627 ;;      Params:         0       0       0       0       0
   628 ;;      Locals:         0       0       0       0       0
   629 ;;      Temps:          0       0       0       0       0
   630 ;;      Totals:         0       0       0       0       0
   631 ;;Total ram usage:        0 bytes
   632 ;; Hardware stack levels used: 1
   633 ;; Hardware stack levels required when called: 4
   634 ;; This function calls:
   635 ;;		Nothing
   636 ;; This function is called by:
   637 ;;		_main
   638 ;; This function uses a non-reentrant model
   639 ;;
   640                           
   641  0CEC                     _setup:	
   642                           ;psect for function _setup
   643                           
   644  0CEC                     l1910:	
   645                           ;incstack = 0
   646                           ; Regs used in _setup: [wreg+status,2+status,0]
   647                           
   648                           
   649                           ;main_Lab.c: 98:     ANSEL = 0b00000011;
   650  0CEC  3003               	movlw	3
   651  0CED  1683               	bsf	3,5	;RP0=1, select bank3
   652  0CEE  1703               	bsf	3,6	;RP1=1, select bank3
   653  0CEF  0088               	movwf	8	;volatile
   654  0CF0                     l1912:
   655                           
   656                           ;main_Lab.c: 99:     ANSELH = 0;
   657  0CF0  0189               	clrf	9	;volatile
   658  0CF1                     l1914:
   659                           
   660                           ;main_Lab.c: 101:     OSCCONbits.IRCF = 0b0011;
   661  0CF1  1683               	bsf	3,5	;RP0=1, select bank1
   662  0CF2  1303               	bcf	3,6	;RP1=0, select bank1
   663  0CF3  080F               	movf	15,w	;volatile
   664  0CF4  398F               	andlw	-113
   665  0CF5  3830               	iorlw	48
   666  0CF6  008F               	movwf	15	;volatile
   667  0CF7                     l1916:
   668                           
   669                           ;main_Lab.c: 102:     OSCCONbits.SCS = 1;
   670  0CF7  140F               	bsf	15,0	;volatile
   671  0CF8                     l1918:
   672                           
   673                           ;main_Lab.c: 104:     TRISA = 0b00000011;
   674  0CF8  3003               	movlw	3
   675  0CF9  0085               	movwf	5	;volatile
   676  0CFA                     l1920:
   677                           
   678                           ;main_Lab.c: 105:     PORTA = 0;
   679  0CFA  1283               	bcf	3,5	;RP0=0, select bank0
   680  0CFB  1303               	bcf	3,6	;RP1=0, select bank0
   681  0CFC  0185               	clrf	5	;volatile
   682                           
   683                           ;main_Lab.c: 108:     ADCON0bits.ADCS = 0b11;
   684  0CFD  30C0               	movlw	192
   685  0CFE  049F               	iorwf	31,f	;volatile
   686  0CFF                     l1922:
   687                           
   688                           ;main_Lab.c: 109:     ADCON1bits.VCFG0 = 0;
   689  0CFF  1683               	bsf	3,5	;RP0=1, select bank1
   690  0D00  1303               	bcf	3,6	;RP1=0, select bank1
   691  0D01  121F               	bcf	31,4	;volatile
   692  0D02                     l1924:
   693                           
   694                           ;main_Lab.c: 110:     ADCON1bits.VCFG1 = 0;
   695  0D02  129F               	bcf	31,5	;volatile
   696                           
   697                           ;main_Lab.c: 111:     ADCON0bits.CHS = 0;
   698  0D03  30C3               	movlw	-61
   699  0D04  1283               	bcf	3,5	;RP0=0, select bank0
   700  0D05  1303               	bcf	3,6	;RP1=0, select bank0
   701  0D06  059F               	andwf	31,f	;volatile
   702  0D07                     l1926:
   703                           
   704                           ;main_Lab.c: 112:     ADCON1bits.ADFM = 0;
   705  0D07  1683               	bsf	3,5	;RP0=1, select bank1
   706  0D08  1303               	bcf	3,6	;RP1=0, select bank1
   707  0D09  139F               	bcf	31,7	;volatile
   708  0D0A                     l1928:
   709                           
   710                           ;main_Lab.c: 113:     ADCON0bits.ADON = 1;
   711  0D0A  1283               	bcf	3,5	;RP0=0, select bank0
   712  0D0B  1303               	bcf	3,6	;RP1=0, select bank0
   713  0D0C  141F               	bsf	31,0	;volatile
   714  0D0D                     l1930:
   715                           
   716                           ;main_Lab.c: 114:     _delay((unsigned long)((40)*(500000/4000000.0)));
   717  0D0D  2D0E               	nop2	;2 cycle nop
   718  0D0E  2D0F               	nop2	;2 cycle nop
   719  0D0F  0000               	nop
   720  0D10                     l1932:
   721                           
   722                           ;main_Lab.c: 117:     TRISCbits.TRISC2 = 1;
   723  0D10  1683               	bsf	3,5	;RP0=1, select bank1
   724  0D11  1303               	bcf	3,6	;RP1=0, select bank1
   725  0D12  1507               	bsf	7,2	;volatile
   726  0D13                     l1934:
   727                           
   728                           ;main_Lab.c: 118:     TRISCbits.TRISC1 = 1;
   729  0D13  1487               	bsf	7,1	;volatile
   730  0D14                     l1936:
   731                           
   732                           ;main_Lab.c: 119:     CCP1CON = 0;
   733  0D14  1283               	bcf	3,5	;RP0=0, select bank0
   734  0D15  1303               	bcf	3,6	;RP1=0, select bank0
   735  0D16  0197               	clrf	23	;volatile
   736  0D17                     l1938:
   737                           
   738                           ;main_Lab.c: 120:     CCP2CON = 0;
   739  0D17  019D               	clrf	29	;volatile
   740  0D18                     l1940:
   741                           
   742                           ;main_Lab.c: 121:     PR2 = 30;
   743  0D18  301E               	movlw	30
   744  0D19  1683               	bsf	3,5	;RP0=1, select bank1
   745  0D1A  1303               	bcf	3,6	;RP1=0, select bank1
   746  0D1B  0092               	movwf	18	;volatile
   747  0D1C                     l1942:
   748                           
   749                           ;main_Lab.c: 124:     CCP1CONbits.P1M = 0;
   750  0D1C  303F               	movlw	-193
   751  0D1D  1283               	bcf	3,5	;RP0=0, select bank0
   752  0D1E  1303               	bcf	3,6	;RP1=0, select bank0
   753  0D1F  0597               	andwf	23,f	;volatile
   754  0D20                     l1944:
   755                           
   756                           ;main_Lab.c: 125:     CCP1CONbits.CCP1M = 0b1100;
   757  0D20  0817               	movf	23,w	;volatile
   758  0D21  39F0               	andlw	-16
   759  0D22  380C               	iorlw	12
   760  0D23  0097               	movwf	23	;volatile
   761  0D24                     l1946:
   762                           
   763                           ;main_Lab.c: 126:     CCP2CONbits.CCP2M = 0b1100;
   764  0D24  081D               	movf	29,w	;volatile
   765  0D25  39F0               	andlw	-16
   766  0D26  380C               	iorlw	12
   767  0D27  009D               	movwf	29	;volatile
   768                           
   769                           ;main_Lab.c: 128:     CCPR1L = 30>>2;
   770  0D28  3007               	movlw	7
   771  0D29  0095               	movwf	21	;volatile
   772  0D2A                     l1948:
   773                           
   774                           ;main_Lab.c: 129:     CCP1CONbits.DC1B = 30 & 0b11;
   775  0D2A  0817               	movf	23,w	;volatile
   776  0D2B  39CF               	andlw	-49
   777  0D2C  3820               	iorlw	32
   778  0D2D  0097               	movwf	23	;volatile
   779  0D2E                     l1950:
   780                           
   781                           ;main_Lab.c: 132:     CCPR2L = 30>>2;
   782  0D2E  3007               	movlw	7
   783  0D2F  009B               	movwf	27	;volatile
   784  0D30                     l1952:
   785                           
   786                           ;main_Lab.c: 133:     CCP2CONbits.DC2B0 = 30 & 0b01;
   787  0D30  121D               	bcf	29,4	;volatile
   788  0D31                     l1954:
   789                           
   790                           ;main_Lab.c: 134:     CCP2CONbits.DC2B1 = (30 & 0b10)>>1;
   791  0D31  169D               	bsf	29,5	;volatile
   792  0D32                     l1956:
   793                           
   794                           ;main_Lab.c: 137:     PIR1bits.TMR2IF = 0;
   795  0D32  108C               	bcf	12,1	;volatile
   796                           
   797                           ;main_Lab.c: 138:     T2CONbits.T2CKPS = 0b11;
   798  0D33  3003               	movlw	3
   799  0D34  0492               	iorwf	18,f	;volatile
   800  0D35                     l1958:
   801                           
   802                           ;main_Lab.c: 139:     T2CONbits.TMR2ON = 1;
   803  0D35  1512               	bsf	18,2	;volatile
   804  0D36                     l74:	
   805                           ;main_Lab.c: 140:     while(!PIR1bits.TMR2IF);
   806                           
   807  0D36  1C8C               	btfss	12,1	;volatile
   808  0D37  2D39               	goto	u2861
   809  0D38  2D3A               	goto	u2860
   810  0D39                     u2861:
   811  0D39  2D36               	goto	l74
   812  0D3A                     u2860:
   813  0D3A                     l76:
   814                           
   815                           ;main_Lab.c: 141:     PIR1bits.TMR2IF = 0;
   816  0D3A  108C               	bcf	12,1	;volatile
   817                           
   818                           ;main_Lab.c: 143:     TRISCbits.TRISC2 = 0;
   819  0D3B  1683               	bsf	3,5	;RP0=1, select bank1
   820  0D3C  1303               	bcf	3,6	;RP1=0, select bank1
   821  0D3D  1107               	bcf	7,2	;volatile
   822                           
   823                           ;main_Lab.c: 144:     TRISCbits.TRISC1 = 0;
   824  0D3E  1087               	bcf	7,1	;volatile
   825                           
   826                           ;main_Lab.c: 147:     INTCONbits.GIE = 1;
   827  0D3F  178B               	bsf	11,7	;volatile
   828                           
   829                           ;main_Lab.c: 148:     PIE1bits.ADIE = 1;
   830  0D40  170C               	bsf	12,6	;volatile
   831                           
   832                           ;main_Lab.c: 149:     PIR1bits.ADIF = 0;
   833  0D41  1283               	bcf	3,5	;RP0=0, select bank0
   834  0D42  1303               	bcf	3,6	;RP1=0, select bank0
   835  0D43  130C               	bcf	12,6	;volatile
   836                           
   837                           ;main_Lab.c: 150:     INTCONbits.PEIE = 1;
   838  0D44  170B               	bsf	11,6	;volatile
   839  0D45                     l77:	
   840                           ;main_Lab.c: 151:     return;
   841                           
   842  0D45  0008               	return
   843  0D46                     __end_of_setup:
   844                           
   845                           	psect	text2
   846  0E94                     __ptext2:	
   847 ;; *************** function _isr *****************
   848 ;; Defined at:
   849 ;;		line 60 in file "main_Lab.c"
   850 ;; Parameters:    Size  Location     Type
   851 ;;		None
   852 ;; Auto vars:     Size  Location     Type
   853 ;;		None
   854 ;; Return value:  Size  Location     Type
   855 ;;                  1    wreg      void 
   856 ;; Registers used:
   857 ;;		wreg, status,2, status,0, btemp+1, pclath, cstack
   858 ;; Tracked objects:
   859 ;;		On entry : 0/0
   860 ;;		On exit  : 0/0
   861 ;;		Unchanged: 0/0
   862 ;; Data sizes:     COMMON   BANK0   BANK1   BANK3   BANK2
   863 ;;      Params:         0       0       0       0       0
   864 ;;      Locals:         0       0       0       0       0
   865 ;;      Temps:          0       0       5       0       0
   866 ;;      Totals:         0       0       5       0       0
   867 ;;Total ram usage:        5 bytes
   868 ;; Hardware stack levels used: 1
   869 ;; Hardware stack levels required when called: 3
   870 ;; This function calls:
   871 ;;		_map
   872 ;; This function is called by:
   873 ;;		Interrupt level 1
   874 ;; This function uses a non-reentrant model
   875 ;;
   876                           
   877  0E94                     _isr:	
   878                           ;psect for function _isr
   879                           
   880  0E94                     i1l1960:
   881                           
   882                           ;main_Lab.c: 62:     if (PIR1bits.ADIF){
   883  0E94  1283               	bcf	3,5	;RP0=0, select bank0
   884  0E95  1303               	bcf	3,6	;RP1=0, select bank0
   885  0E96  1F0C               	btfss	12,6	;volatile
   886  0E97  2E99               	goto	u287_21
   887  0E98  2E9A               	goto	u287_20
   888  0E99                     u287_21:
   889  0E99  2F3B               	goto	i1l59
   890  0E9A                     u287_20:
   891  0E9A                     i1l1962:
   892                           
   893                           ;main_Lab.c: 63:         if (ADCON0bits.CHS == 0){
   894  0E9A  0C1F               	rrf	31,w	;volatile
   895  0E9B  1683               	bsf	3,5	;RP0=1, select bank1
   896  0E9C  1303               	bcf	3,6	;RP1=0, select bank1
   897  0E9D  00AB               	movwf	??_isr^(0+128)
   898  0E9E  0C2B               	rrf	??_isr^(0+128),w
   899  0E9F  390F               	andlw	15
   900  0EA0  3A00               	xorlw	0
   901  0EA1  1D03               	skipz
   902  0EA2  2EA4               	goto	u288_21
   903  0EA3  2EA5               	goto	u288_20
   904  0EA4                     u288_21:
   905  0EA4  2EE0               	goto	i1l1970
   906  0EA5                     u288_20:
   907  0EA5                     i1l1964:
   908                           
   909                           ;main_Lab.c: 64:             CCPR = map(ADRESH, 0, 255, 16, 80);
   910  0EA5  01A5               	clrf	map@x0^(0+128)
   911  0EA6  30FF               	movlw	255
   912  0EA7  00AB               	movwf	??_isr^(0+128)
   913  0EA8  082B               	movf	??_isr^(0+128),w
   914  0EA9  00A6               	movwf	map@x1^(0+128)
   915  0EAA  3010               	movlw	16
   916  0EAB  00A7               	movwf	map@y0^(0+128)
   917  0EAC  3000               	movlw	0
   918  0EAD  00A8               	movwf	(map@y0^(0+128)+1)
   919  0EAE  3050               	movlw	80
   920  0EAF  00A9               	movwf	map@y1^(0+128)
   921  0EB0  3000               	movlw	0
   922  0EB1  00AA               	movwf	(map@y1^(0+128)+1)
   923  0EB2  1283               	bcf	3,5	;RP0=0, select bank0
   924  0EB3  1303               	bcf	3,6	;RP1=0, select bank0
   925  0EB4  081E               	movf	30,w	;volatile
   926  0EB5  120A  158A  25E2  120A  158A  	fcall	_map
   927  0EBA  1683               	bsf	3,5	;RP0=1, select bank1
   928  0EBB  1303               	bcf	3,6	;RP1=0, select bank1
   929  0EBC  0826               	movf	(?_map+1)^(0+128),w
   930  0EBD  00B4               	movwf	(_CCPR+1)^(0+128)
   931  0EBE  0825               	movf	?_map^(0+128),w
   932  0EBF  00B3               	movwf	_CCPR^(0+128)
   933  0EC0                     i1l1966:
   934                           
   935                           ;main_Lab.c: 65:             CCPR1L = (uint8_t)(CCPR>>2);
   936  0EC0  0834               	movf	(_CCPR+1)^(0+128),w
   937  0EC1  00AC               	movwf	(??_isr^(0+128)+1)
   938  0EC2  0833               	movf	_CCPR^(0+128),w
   939  0EC3  00AB               	movwf	??_isr^(0+128)
   940  0EC4  1003               	clrc
   941  0EC5  0CAC               	rrf	(??_isr^(0+128)+1),f
   942  0EC6  0CAB               	rrf	??_isr^(0+128),f
   943  0EC7  1003               	clrc
   944  0EC8  0CAC               	rrf	(??_isr^(0+128)+1),f
   945  0EC9  0CAB               	rrf	??_isr^(0+128),f
   946  0ECA  082B               	movf	??_isr^(0+128),w
   947  0ECB  1283               	bcf	3,5	;RP0=0, select bank0
   948  0ECC  1303               	bcf	3,6	;RP1=0, select bank0
   949  0ECD  0095               	movwf	21	;volatile
   950  0ECE                     i1l1968:
   951                           
   952                           ;main_Lab.c: 66:             CCP1CONbits.DC1B = CCPR & 0b11;
   953  0ECE  1683               	bsf	3,5	;RP0=1, select bank1
   954  0ECF  1303               	bcf	3,6	;RP1=0, select bank1
   955  0ED0  0833               	movf	_CCPR^(0+128),w
   956  0ED1  3903               	andlw	3
   957  0ED2  00AB               	movwf	??_isr^(0+128)
   958  0ED3  0EAB               	swapf	??_isr^(0+128),f
   959  0ED4  1283               	bcf	3,5	;RP0=0, select bank0
   960  0ED5  1303               	bcf	3,6	;RP1=0, select bank0
   961  0ED6  0817               	movf	23,w	;volatile
   962  0ED7  1683               	bsf	3,5	;RP0=1, select bank1
   963  0ED8  1303               	bcf	3,6	;RP1=0, select bank1
   964  0ED9  062B               	xorwf	??_isr^(0+128),w
   965  0EDA  39CF               	andlw	-49
   966  0EDB  062B               	xorwf	??_isr^(0+128),w
   967  0EDC  1283               	bcf	3,5	;RP0=0, select bank0
   968  0EDD  1303               	bcf	3,6	;RP1=0, select bank0
   969  0EDE  0097               	movwf	23	;volatile
   970                           
   971                           ;main_Lab.c: 67:         }
   972  0EDF  2F39               	goto	i1l1980
   973  0EE0                     i1l1970:
   974  0EE0  1283               	bcf	3,5	;RP0=0, select bank0
   975  0EE1  1303               	bcf	3,6	;RP1=0, select bank0
   976  0EE2  0C1F               	rrf	31,w	;volatile
   977  0EE3  1683               	bsf	3,5	;RP0=1, select bank1
   978  0EE4  1303               	bcf	3,6	;RP1=0, select bank1
   979  0EE5  00AB               	movwf	??_isr^(0+128)
   980  0EE6  0C2B               	rrf	??_isr^(0+128),w
   981  0EE7  390F               	andlw	15
   982  0EE8  3A01               	xorlw	1
   983  0EE9  1D03               	skipz
   984  0EEA  2EEC               	goto	u289_21
   985  0EEB  2EED               	goto	u289_20
   986  0EEC                     u289_21:
   987  0EEC  2F39               	goto	i1l1980
   988  0EED                     u289_20:
   989  0EED                     i1l1972:
   990                           
   991                           ;main_Lab.c: 69:             CCPR_2 = map(ADRESH, 0, 255, 16, 80);
   992  0EED  01A5               	clrf	map@x0^(0+128)
   993  0EEE  30FF               	movlw	255
   994  0EEF  00AB               	movwf	??_isr^(0+128)
   995  0EF0  082B               	movf	??_isr^(0+128),w
   996  0EF1  00A6               	movwf	map@x1^(0+128)
   997  0EF2  3010               	movlw	16
   998  0EF3  00A7               	movwf	map@y0^(0+128)
   999  0EF4  3000               	movlw	0
  1000  0EF5  00A8               	movwf	(map@y0^(0+128)+1)
  1001  0EF6  3050               	movlw	80
  1002  0EF7  00A9               	movwf	map@y1^(0+128)
  1003  0EF8  3000               	movlw	0
  1004  0EF9  00AA               	movwf	(map@y1^(0+128)+1)
  1005  0EFA  1283               	bcf	3,5	;RP0=0, select bank0
  1006  0EFB  1303               	bcf	3,6	;RP1=0, select bank0
  1007  0EFC  081E               	movf	30,w	;volatile
  1008  0EFD  120A  158A  25E2  120A  158A  	fcall	_map
  1009  0F02  1683               	bsf	3,5	;RP0=1, select bank1
  1010  0F03  1303               	bcf	3,6	;RP1=0, select bank1
  1011  0F04  0826               	movf	(?_map+1)^(0+128),w
  1012  0F05  00B2               	movwf	(_CCPR_2+1)^(0+128)
  1013  0F06  0825               	movf	?_map^(0+128),w
  1014  0F07  00B1               	movwf	_CCPR_2^(0+128)
  1015  0F08                     i1l1974:
  1016                           
  1017                           ;main_Lab.c: 70:             CCPR2L = (uint8_t)(CCPR_2>>2);
  1018  0F08  0832               	movf	(_CCPR_2+1)^(0+128),w
  1019  0F09  00AC               	movwf	(??_isr^(0+128)+1)
  1020  0F0A  0831               	movf	_CCPR_2^(0+128),w
  1021  0F0B  00AB               	movwf	??_isr^(0+128)
  1022  0F0C  1003               	clrc
  1023  0F0D  0CAC               	rrf	(??_isr^(0+128)+1),f
  1024  0F0E  0CAB               	rrf	??_isr^(0+128),f
  1025  0F0F  1003               	clrc
  1026  0F10  0CAC               	rrf	(??_isr^(0+128)+1),f
  1027  0F11  0CAB               	rrf	??_isr^(0+128),f
  1028  0F12  082B               	movf	??_isr^(0+128),w
  1029  0F13  1283               	bcf	3,5	;RP0=0, select bank0
  1030  0F14  1303               	bcf	3,6	;RP1=0, select bank0
  1031  0F15  009B               	movwf	27	;volatile
  1032  0F16                     i1l1976:
  1033                           
  1034                           ;main_Lab.c: 71:             CCP2CONbits.DC2B0 = CCPR_2 & 0b01;
  1035  0F16  1683               	bsf	3,5	;RP0=1, select bank1
  1036  0F17  1303               	bcf	3,6	;RP1=0, select bank1
  1037  0F18  0831               	movf	_CCPR_2^(0+128),w
  1038  0F19  3901               	andlw	1
  1039  0F1A  00AB               	movwf	??_isr^(0+128)
  1040  0F1B  0EAB               	swapf	??_isr^(0+128),f
  1041  0F1C  1283               	bcf	3,5	;RP0=0, select bank0
  1042  0F1D  1303               	bcf	3,6	;RP1=0, select bank0
  1043  0F1E  081D               	movf	29,w	;volatile
  1044  0F1F  1683               	bsf	3,5	;RP0=1, select bank1
  1045  0F20  1303               	bcf	3,6	;RP1=0, select bank1
  1046  0F21  062B               	xorwf	??_isr^(0+128),w
  1047  0F22  39EF               	andlw	-17
  1048  0F23  062B               	xorwf	??_isr^(0+128),w
  1049  0F24  1283               	bcf	3,5	;RP0=0, select bank0
  1050  0F25  1303               	bcf	3,6	;RP1=0, select bank0
  1051  0F26  009D               	movwf	29	;volatile
  1052  0F27                     i1l1978:
  1053                           
  1054                           ;main_Lab.c: 72:             CCP2CONbits.DC2B1 = CCPR_2 & 0b10;
  1055  0F27  1683               	bsf	3,5	;RP0=1, select bank1
  1056  0F28  1303               	bcf	3,6	;RP1=0, select bank1
  1057  0F29  0831               	movf	_CCPR_2^(0+128),w
  1058  0F2A  3902               	andlw	2
  1059  0F2B  00AB               	movwf	??_isr^(0+128)
  1060  0F2C  0EAB               	swapf	??_isr^(0+128),f
  1061  0F2D  0DAB               	rlf	??_isr^(0+128),f
  1062  0F2E  1283               	bcf	3,5	;RP0=0, select bank0
  1063  0F2F  1303               	bcf	3,6	;RP1=0, select bank0
  1064  0F30  081D               	movf	29,w	;volatile
  1065  0F31  1683               	bsf	3,5	;RP0=1, select bank1
  1066  0F32  1303               	bcf	3,6	;RP1=0, select bank1
  1067  0F33  062B               	xorwf	??_isr^(0+128),w
  1068  0F34  39DF               	andlw	-33
  1069  0F35  062B               	xorwf	??_isr^(0+128),w
  1070  0F36  1283               	bcf	3,5	;RP0=0, select bank0
  1071  0F37  1303               	bcf	3,6	;RP1=0, select bank0
  1072  0F38  009D               	movwf	29	;volatile
  1073  0F39                     i1l1980:
  1074                           
  1075                           ;main_Lab.c: 74:         PIR1bits.ADIF = 0;
  1076  0F39  1283               	bcf	3,5	;RP0=0, select bank0
  1077  0F3A  130C               	bcf	12,6	;volatile
  1078  0F3B                     i1l59:
  1079  0F3B  1683               	bsf	3,5	;RP0=1, select bank1
  1080  0F3C  1303               	bcf	3,6	;RP1=0, select bank1
  1081  0F3D  082F               	movf	(??_isr+4)^(0+128),w
  1082  0F3E  00FF               	movwf	btemp+1
  1083  0F3F  082E               	movf	(??_isr+3)^(0+128),w
  1084  0F40  008A               	movwf	10
  1085  0F41  0E2D               	swapf	(??_isr+2)^(0+128),w
  1086  0F42  0083               	movwf	3
  1087  0F43  0EFE               	swapf	btemp,f
  1088  0F44  0E7E               	swapf	btemp,w
  1089  0F45  0009               	retfie
  1090  0F46                     __end_of_isr:
  1091                           
  1092                           	psect	intentry
  1093  0004                     __pintentry:	
  1094                           ;incstack = 0
  1095                           ; Regs used in _isr: [wreg+status,2+status,0+btemp+1+pclath+cstack]
  1096                           
  1097  0004                     interrupt_function:
  1098  007E                     saved_w	set	btemp
  1099  0004  00FE               	movwf	btemp
  1100  0005  0E03               	swapf	3,w
  1101  0006  1683               	bsf	3,5	;RP0=1, select bank1
  1102  0007  1303               	bcf	3,6	;RP1=0, select bank1
  1103  0008  00AD               	movwf	(??_isr+2)^(0+128)
  1104  0009  080A               	movf	10,w
  1105  000A  00AE               	movwf	(??_isr+3)^(0+128)
  1106  000B  087F               	movf	btemp+1,w
  1107  000C  00AF               	movwf	(??_isr+4)^(0+128)
  1108  000D  120A  158A  2E94   	ljmp	_isr
  1109                           
  1110                           	psect	text3
  1111  0DE2                     __ptext3:	
  1112 ;; *************** function _map *****************
  1113 ;; Defined at:
  1114 ;;		line 164 in file "main_Lab.c"
  1115 ;; Parameters:    Size  Location     Type
  1116 ;;  x               1    wreg     unsigned char 
  1117 ;;  x0              1    5[BANK1 ] unsigned char 
  1118 ;;  x1              1    6[BANK1 ] unsigned char 
  1119 ;;  y0              2    7[BANK1 ] unsigned short 
  1120 ;;  y1              2    9[BANK1 ] unsigned short 
  1121 ;; Auto vars:     Size  Location     Type
  1122 ;;  x               1   78[BANK0 ] unsigned char 
  1123 ;; Return value:  Size  Location     Type
  1124 ;;                  2    5[BANK1 ] unsigned short 
  1125 ;; Registers used:
  1126 ;;		wreg, status,2, status,0, btemp+1, pclath, cstack
  1127 ;; Tracked objects:
  1128 ;;		On entry : 0/0
  1129 ;;		On exit  : 0/0
  1130 ;;		Unchanged: 0/0
  1131 ;; Data sizes:     COMMON   BANK0   BANK1   BANK3   BANK2
  1132 ;;      Params:         0       0       6       0       0
  1133 ;;      Locals:         0       1       0       0       0
  1134 ;;      Temps:          0       0       0       0       0
  1135 ;;      Totals:         0       1       6       0       0
  1136 ;;Total ram usage:        7 bytes
  1137 ;; Hardware stack levels used: 1
  1138 ;; Hardware stack levels required when called: 2
  1139 ;; This function calls:
  1140 ;;		___fladd
  1141 ;;		___fldiv
  1142 ;;		___flmul
  1143 ;;		___fltol
  1144 ;;		___xxtofl
  1145 ;; This function is called by:
  1146 ;;		_isr
  1147 ;; This function uses a non-reentrant model
  1148 ;;
  1149                           
  1150  0DE2                     _map:	
  1151                           ;psect for function _map
  1152                           
  1153                           
  1154                           ;incstack = 0
  1155                           ; Regs used in _map: [wreg+status,2+status,0+btemp+1+pclath+cstack]
  1156                           ;map@x stored from wreg
  1157  0DE2  1283               	bcf	3,5	;RP0=0, select bank0
  1158  0DE3  1303               	bcf	3,6	;RP1=0, select bank0
  1159  0DE4  00EE               	movwf	map@x
  1160  0DE5                     i1l1906:
  1161                           
  1162                           ;main_Lab.c: 164: unsigned short map(uint8_t x, uint8_t x0, uint8_t x1,;main_Lab.c: 165:
      +                                       unsigned short y0, unsigned short y1){;main_Lab.c: 166:     return (unsigne
      +                          d short)(y0+((float)(y1-y0)/(x1-x0))*(x-x0));
  1163  0DE5  1683               	bsf	3,5	;RP0=1, select bank1
  1164  0DE6  1303               	bcf	3,6	;RP1=0, select bank1
  1165  0DE7  0827               	movf	map@y0^(0+128),w
  1166  0DE8  00F0               	movwf	___xxtofl@val
  1167  0DE9  0828               	movf	(map@y0+1)^(0+128),w
  1168  0DEA  00F1               	movwf	___xxtofl@val+1
  1169  0DEB  01F2               	clrf	___xxtofl@val+2
  1170  0DEC  01F3               	clrf	___xxtofl@val+3
  1171  0DED  3000               	movlw	0
  1172  0DEE  120A  158A  2746  120A  158A  	fcall	___xxtofl
  1173  0DF3  0873               	movf	?___xxtofl+3,w
  1174  0DF4  1283               	bcf	3,5	;RP0=0, select bank0
  1175  0DF5  1303               	bcf	3,6	;RP1=0, select bank0
  1176  0DF6  00DB               	movwf	___fladd@a+3
  1177  0DF7  0872               	movf	?___xxtofl+2,w
  1178  0DF8  00DA               	movwf	___fladd@a+2
  1179  0DF9  0871               	movf	?___xxtofl+1,w
  1180  0DFA  00D9               	movwf	___fladd@a+1
  1181  0DFB  0870               	movf	?___xxtofl,w
  1182  0DFC  00D8               	movwf	___fladd@a
  1183  0DFD  1683               	bsf	3,5	;RP0=1, select bank1
  1184  0DFE  1303               	bcf	3,6	;RP1=0, select bank1
  1185  0DFF  0827               	movf	map@y0^(0+128),w
  1186  0E00  0229               	subwf	map@y1^(0+128),w
  1187  0E01  00F0               	movwf	___xxtofl@val
  1188  0E02  0828               	movf	(map@y0+1)^(0+128),w
  1189  0E03  1C03               	skipc
  1190  0E04  0A28               	incf	(map@y0+1)^(0+128),w
  1191  0E05  022A               	subwf	(map@y1+1)^(0+128),w
  1192  0E06  00F1               	movwf	___xxtofl@val+1
  1193  0E07  01F2               	clrf	___xxtofl@val+2
  1194  0E08  01F3               	clrf	___xxtofl@val+3
  1195  0E09  3000               	movlw	0
  1196  0E0A  120A  158A  2746  120A  158A  	fcall	___xxtofl
  1197  0E0F  0873               	movf	?___xxtofl+3,w
  1198  0E10  1283               	bcf	3,5	;RP0=0, select bank0
  1199  0E11  1303               	bcf	3,6	;RP1=0, select bank0
  1200  0E12  00A7               	movwf	___fldiv@b+3
  1201  0E13  0872               	movf	?___xxtofl+2,w
  1202  0E14  00A6               	movwf	___fldiv@b+2
  1203  0E15  0871               	movf	?___xxtofl+1,w
  1204  0E16  00A5               	movwf	___fldiv@b+1
  1205  0E17  0870               	movf	?___xxtofl,w
  1206  0E18  00A4               	movwf	___fldiv@b
  1207  0E19  1683               	bsf	3,5	;RP0=1, select bank1
  1208  0E1A  1303               	bcf	3,6	;RP1=0, select bank1
  1209  0E1B  0825               	movf	map@x0^(0+128),w
  1210  0E1C  0226               	subwf	map@x1^(0+128),w
  1211  0E1D  00F0               	movwf	___xxtofl@val
  1212  0E1E  01F1               	clrf	___xxtofl@val+1
  1213  0E1F  1C03               	skipc
  1214  0E20  03F1               	decf	___xxtofl@val+1,f
  1215  0E21  01F2               	clrf	___xxtofl@val+2
  1216  0E22  1BF1               	btfsc	___xxtofl@val+1,7
  1217  0E23  03F2               	decf	___xxtofl@val+2,f
  1218  0E24  0872               	movf	___xxtofl@val+2,w
  1219  0E25  00F3               	movwf	___xxtofl@val+3
  1220  0E26  3001               	movlw	1
  1221  0E27  120A  158A  2746  120A  158A  	fcall	___xxtofl
  1222  0E2C  0873               	movf	?___xxtofl+3,w
  1223  0E2D  1283               	bcf	3,5	;RP0=0, select bank0
  1224  0E2E  1303               	bcf	3,6	;RP1=0, select bank0
  1225  0E2F  00A3               	movwf	___fldiv@a+3
  1226  0E30  0872               	movf	?___xxtofl+2,w
  1227  0E31  00A2               	movwf	___fldiv@a+2
  1228  0E32  0871               	movf	?___xxtofl+1,w
  1229  0E33  00A1               	movwf	___fldiv@a+1
  1230  0E34  0870               	movf	?___xxtofl,w
  1231  0E35  00A0               	movwf	___fldiv@a
  1232  0E36  120A  118A  2606  120A  158A  	fcall	___fldiv
  1233  0E3B  1283               	bcf	3,5	;RP0=0, select bank0
  1234  0E3C  1303               	bcf	3,6	;RP1=0, select bank0
  1235  0E3D  0823               	movf	?___fldiv+3,w
  1236  0E3E  00C1               	movwf	___flmul@a+3
  1237  0E3F  0822               	movf	?___fldiv+2,w
  1238  0E40  00C0               	movwf	___flmul@a+2
  1239  0E41  0821               	movf	?___fldiv+1,w
  1240  0E42  00BF               	movwf	___flmul@a+1
  1241  0E43  0820               	movf	?___fldiv,w
  1242  0E44  00BE               	movwf	___flmul@a
  1243  0E45  1683               	bsf	3,5	;RP0=1, select bank1
  1244  0E46  1303               	bcf	3,6	;RP1=0, select bank1
  1245  0E47  0825               	movf	map@x0^(0+128),w
  1246  0E48  1283               	bcf	3,5	;RP0=0, select bank0
  1247  0E49  1303               	bcf	3,6	;RP1=0, select bank0
  1248  0E4A  026E               	subwf	map@x,w
  1249  0E4B  00F0               	movwf	___xxtofl@val
  1250  0E4C  01F1               	clrf	___xxtofl@val+1
  1251  0E4D  1C03               	skipc
  1252  0E4E  03F1               	decf	___xxtofl@val+1,f
  1253  0E4F  01F2               	clrf	___xxtofl@val+2
  1254  0E50  1BF1               	btfsc	___xxtofl@val+1,7
  1255  0E51  03F2               	decf	___xxtofl@val+2,f
  1256  0E52  0872               	movf	___xxtofl@val+2,w
  1257  0E53  00F3               	movwf	___xxtofl@val+3
  1258  0E54  3001               	movlw	1
  1259  0E55  120A  158A  2746  120A  158A  	fcall	___xxtofl
  1260  0E5A  0873               	movf	?___xxtofl+3,w
  1261  0E5B  1283               	bcf	3,5	;RP0=0, select bank0
  1262  0E5C  1303               	bcf	3,6	;RP1=0, select bank0
  1263  0E5D  00BD               	movwf	___flmul@b+3
  1264  0E5E  0872               	movf	?___xxtofl+2,w
  1265  0E5F  00BC               	movwf	___flmul@b+2
  1266  0E60  0871               	movf	?___xxtofl+1,w
  1267  0E61  00BB               	movwf	___flmul@b+1
  1268  0E62  0870               	movf	?___xxtofl,w
  1269  0E63  00BA               	movwf	___flmul@b
  1270  0E64  120A  118A  201D  120A  158A  	fcall	___flmul
  1271  0E69  1283               	bcf	3,5	;RP0=0, select bank0
  1272  0E6A  1303               	bcf	3,6	;RP1=0, select bank0
  1273  0E6B  083D               	movf	?___flmul+3,w
  1274  0E6C  00D7               	movwf	___fladd@b+3
  1275  0E6D  083C               	movf	?___flmul+2,w
  1276  0E6E  00D6               	movwf	___fladd@b+2
  1277  0E6F  083B               	movf	?___flmul+1,w
  1278  0E70  00D5               	movwf	___fladd@b+1
  1279  0E71  083A               	movf	?___flmul,w
  1280  0E72  00D4               	movwf	___fladd@b
  1281  0E73  120A  118A  237E  120A  158A  	fcall	___fladd
  1282  0E78  1283               	bcf	3,5	;RP0=0, select bank0
  1283  0E79  1303               	bcf	3,6	;RP1=0, select bank0
  1284  0E7A  0857               	movf	?___fladd+3,w
  1285  0E7B  00EB               	movwf	___fltol@f1+3
  1286  0E7C  0856               	movf	?___fladd+2,w
  1287  0E7D  00EA               	movwf	___fltol@f1+2
  1288  0E7E  0855               	movf	?___fladd+1,w
  1289  0E7F  00E9               	movwf	___fltol@f1+1
  1290  0E80  0854               	movf	?___fladd,w
  1291  0E81  00E8               	movwf	___fltol@f1
  1292  0E82  120A  158A  2546  120A  158A  	fcall	___fltol
  1293  0E87  1283               	bcf	3,5	;RP0=0, select bank0
  1294  0E88  1303               	bcf	3,6	;RP1=0, select bank0
  1295  0E89  0869               	movf	?___fltol+1,w
  1296  0E8A  1683               	bsf	3,5	;RP0=1, select bank1
  1297  0E8B  1303               	bcf	3,6	;RP1=0, select bank1
  1298  0E8C  00A6               	movwf	(?_map+1)^(0+128)
  1299  0E8D  1283               	bcf	3,5	;RP0=0, select bank0
  1300  0E8E  1303               	bcf	3,6	;RP1=0, select bank0
  1301  0E8F  0868               	movf	?___fltol,w
  1302  0E90  1683               	bsf	3,5	;RP0=1, select bank1
  1303  0E91  1303               	bcf	3,6	;RP1=0, select bank1
  1304  0E92  00A5               	movwf	?_map^(0+128)
  1305  0E93                     i1l80:
  1306  0E93  0008               	return
  1307  0E94                     __end_of_map:
  1308                           
  1309                           	psect	text4
  1310  0F46                     __ptext4:	
  1311 ;; *************** function ___xxtofl *****************
  1312 ;; Defined at:
  1313 ;;		line 10 in file "C:\Program Files\Microchip\xc8\v2.35\pic\sources\c90\common\xxtofl.c"
  1314 ;; Parameters:    Size  Location     Type
  1315 ;;  sign            1    wreg     unsigned char 
  1316 ;;  val             4    0[COMMON] long 
  1317 ;; Auto vars:     Size  Location     Type
  1318 ;;  sign            1    8[COMMON] unsigned char 
  1319 ;;  arg             4   10[COMMON] unsigned long 
  1320 ;;  exp             1    9[COMMON] unsigned char 
  1321 ;; Return value:  Size  Location     Type
  1322 ;;                  4    0[COMMON] unsigned char 
  1323 ;; Registers used:
  1324 ;;		wreg, status,2, status,0
  1325 ;; Tracked objects:
  1326 ;;		On entry : 0/0
  1327 ;;		On exit  : 0/0
  1328 ;;		Unchanged: 0/0
  1329 ;; Data sizes:     COMMON   BANK0   BANK1   BANK3   BANK2
  1330 ;;      Params:         4       0       0       0       0
  1331 ;;      Locals:         6       0       0       0       0
  1332 ;;      Temps:          4       0       0       0       0
  1333 ;;      Totals:        14       0       0       0       0
  1334 ;;Total ram usage:       14 bytes
  1335 ;; Hardware stack levels used: 1
  1336 ;; This function calls:
  1337 ;;		Nothing
  1338 ;; This function is called by:
  1339 ;;		_map
  1340 ;; This function uses a non-reentrant model
  1341 ;;
  1342                           
  1343  0F46                     ___xxtofl:	
  1344                           ;psect for function ___xxtofl
  1345                           
  1346                           
  1347                           ;incstack = 0
  1348                           ; Regs used in ___xxtofl: [wreg+status,2+status,0]
  1349                           ;___xxtofl@sign stored from wreg
  1350  0F46  00F8               	movwf	___xxtofl@sign
  1351  0F47                     i1l1862:
  1352  0F47  0878               	movf	___xxtofl@sign,w
  1353  0F48  1903               	btfsc	3,2
  1354  0F49  2F4B               	goto	u272_21
  1355  0F4A  2F4C               	goto	u272_20
  1356  0F4B                     u272_21:
  1357  0F4B  2F60               	goto	i1l1868
  1358  0F4C                     u272_20:
  1359  0F4C                     i1l1864:
  1360  0F4C  1FF3               	btfss	___xxtofl@val+3,7
  1361  0F4D  2F4F               	goto	u273_21
  1362  0F4E  2F50               	goto	u273_20
  1363  0F4F                     u273_21:
  1364  0F4F  2F60               	goto	i1l1868
  1365  0F50                     u273_20:
  1366  0F50                     i1l1866:
  1367  0F50  0970               	comf	___xxtofl@val,w
  1368  0F51  00FA               	movwf	___xxtofl@arg
  1369  0F52  0971               	comf	___xxtofl@val+1,w
  1370  0F53  00FB               	movwf	___xxtofl@arg+1
  1371  0F54  0972               	comf	___xxtofl@val+2,w
  1372  0F55  00FC               	movwf	___xxtofl@arg+2
  1373  0F56  0973               	comf	___xxtofl@val+3,w
  1374  0F57  00FD               	movwf	___xxtofl@arg+3
  1375  0F58  0AFA               	incf	___xxtofl@arg,f
  1376  0F59  1903               	skipnz
  1377  0F5A  0AFB               	incf	___xxtofl@arg+1,f
  1378  0F5B  1903               	skipnz
  1379  0F5C  0AFC               	incf	___xxtofl@arg+2,f
  1380  0F5D  1903               	skipnz
  1381  0F5E  0AFD               	incf	___xxtofl@arg+3,f
  1382  0F5F  2F68               	goto	i1l599
  1383  0F60                     i1l1868:
  1384  0F60  0873               	movf	___xxtofl@val+3,w
  1385  0F61  00FD               	movwf	___xxtofl@arg+3
  1386  0F62  0872               	movf	___xxtofl@val+2,w
  1387  0F63  00FC               	movwf	___xxtofl@arg+2
  1388  0F64  0871               	movf	___xxtofl@val+1,w
  1389  0F65  00FB               	movwf	___xxtofl@arg+1
  1390  0F66  0870               	movf	___xxtofl@val,w
  1391  0F67  00FA               	movwf	___xxtofl@arg
  1392  0F68                     i1l599:
  1393  0F68  0873               	movf	___xxtofl@val+3,w
  1394  0F69  0472               	iorwf	___xxtofl@val+2,w
  1395  0F6A  0471               	iorwf	___xxtofl@val+1,w
  1396  0F6B  0470               	iorwf	___xxtofl@val,w
  1397  0F6C  1D03               	skipz
  1398  0F6D  2F6F               	goto	u274_21
  1399  0F6E  2F70               	goto	u274_20
  1400  0F6F                     u274_21:
  1401  0F6F  2F79               	goto	i1l1874
  1402  0F70                     u274_20:
  1403  0F70                     i1l1870:
  1404  0F70  3000               	movlw	0
  1405  0F71  00F3               	movwf	?___xxtofl+3
  1406  0F72  3000               	movlw	0
  1407  0F73  00F2               	movwf	?___xxtofl+2
  1408  0F74  3000               	movlw	0
  1409  0F75  00F1               	movwf	?___xxtofl+1
  1410  0F76  3000               	movlw	0
  1411  0F77  00F0               	movwf	?___xxtofl
  1412  0F78  2FFF               	goto	i1l601
  1413  0F79                     i1l1874:
  1414  0F79  3096               	movlw	150
  1415  0F7A  00F4               	movwf	??___xxtofl
  1416  0F7B  0874               	movf	??___xxtofl,w
  1417  0F7C  00F9               	movwf	___xxtofl@exp
  1418  0F7D  2F8B               	goto	i1l1878
  1419  0F7E                     i1l1876:
  1420  0F7E  3001               	movlw	1
  1421  0F7F  00F4               	movwf	??___xxtofl
  1422  0F80  0874               	movf	??___xxtofl,w
  1423  0F81  07F9               	addwf	___xxtofl@exp,f
  1424  0F82  3001               	movlw	1
  1425  0F83                     u275_25:
  1426  0F83  1003               	clrc
  1427  0F84  0CFD               	rrf	___xxtofl@arg+3,f
  1428  0F85  0CFC               	rrf	___xxtofl@arg+2,f
  1429  0F86  0CFB               	rrf	___xxtofl@arg+1,f
  1430  0F87  0CFA               	rrf	___xxtofl@arg,f
  1431  0F88  3EFF               	addlw	-1
  1432  0F89  1D03               	skipz
  1433  0F8A  2F83               	goto	u275_25
  1434  0F8B                     i1l1878:
  1435  0F8B  30FE               	movlw	254
  1436  0F8C  057D               	andwf	___xxtofl@arg+3,w
  1437  0F8D  1D03               	btfss	3,2
  1438  0F8E  2F90               	goto	u276_21
  1439  0F8F  2F91               	goto	u276_20
  1440  0F90                     u276_21:
  1441  0F90  2F7E               	goto	i1l1876
  1442  0F91                     u276_20:
  1443  0F91  2FAD               	goto	i1l605
  1444  0F92                     i1l1880:
  1445  0F92  3001               	movlw	1
  1446  0F93  00F4               	movwf	??___xxtofl
  1447  0F94  0874               	movf	??___xxtofl,w
  1448  0F95  07F9               	addwf	___xxtofl@exp,f
  1449  0F96                     i1l1882:
  1450  0F96  3001               	movlw	1
  1451  0F97  07FA               	addwf	___xxtofl@arg,f
  1452  0F98  3000               	movlw	0
  1453  0F99  1803               	skipnc
  1454  0F9A  3001               	movlw	1
  1455  0F9B  07FB               	addwf	___xxtofl@arg+1,f
  1456  0F9C  3000               	movlw	0
  1457  0F9D  1803               	skipnc
  1458  0F9E  3001               	movlw	1
  1459  0F9F  07FC               	addwf	___xxtofl@arg+2,f
  1460  0FA0  3000               	movlw	0
  1461  0FA1  1803               	skipnc
  1462  0FA2  3001               	movlw	1
  1463  0FA3  07FD               	addwf	___xxtofl@arg+3,f
  1464  0FA4                     i1l1884:
  1465  0FA4  3001               	movlw	1
  1466  0FA5                     u277_25:
  1467  0FA5  1003               	clrc
  1468  0FA6  0CFD               	rrf	___xxtofl@arg+3,f
  1469  0FA7  0CFC               	rrf	___xxtofl@arg+2,f
  1470  0FA8  0CFB               	rrf	___xxtofl@arg+1,f
  1471  0FA9  0CFA               	rrf	___xxtofl@arg,f
  1472  0FAA  3EFF               	addlw	-1
  1473  0FAB  1D03               	skipz
  1474  0FAC  2FA5               	goto	u277_25
  1475  0FAD                     i1l605:
  1476  0FAD  30FF               	movlw	255
  1477  0FAE  057D               	andwf	___xxtofl@arg+3,w
  1478  0FAF  1D03               	btfss	3,2
  1479  0FB0  2FB2               	goto	u278_21
  1480  0FB1  2FB3               	goto	u278_20
  1481  0FB2                     u278_21:
  1482  0FB2  2F92               	goto	i1l1880
  1483  0FB3                     u278_20:
  1484  0FB3  2FBF               	goto	i1l1888
  1485  0FB4                     i1l1886:
  1486  0FB4  3001               	movlw	1
  1487  0FB5  02F9               	subwf	___xxtofl@exp,f
  1488  0FB6  3001               	movlw	1
  1489  0FB7  00F4               	movwf	??___xxtofl
  1490  0FB8                     u279_25:
  1491  0FB8  1003               	clrc
  1492  0FB9  0DFA               	rlf	___xxtofl@arg,f
  1493  0FBA  0DFB               	rlf	___xxtofl@arg+1,f
  1494  0FBB  0DFC               	rlf	___xxtofl@arg+2,f
  1495  0FBC  0DFD               	rlf	___xxtofl@arg+3,f
  1496  0FBD  0BF4               	decfsz	??___xxtofl,f
  1497  0FBE  2FB8               	goto	u279_25
  1498  0FBF                     i1l1888:
  1499  0FBF  1BFC               	btfsc	___xxtofl@arg+2,7
  1500  0FC0  2FC2               	goto	u280_21
  1501  0FC1  2FC3               	goto	u280_20
  1502  0FC2                     u280_21:
  1503  0FC2  2FC9               	goto	i1l612
  1504  0FC3                     u280_20:
  1505  0FC3                     i1l1890:
  1506  0FC3  3002               	movlw	2
  1507  0FC4  0279               	subwf	___xxtofl@exp,w
  1508  0FC5  1803               	skipnc
  1509  0FC6  2FC8               	goto	u281_21
  1510  0FC7  2FC9               	goto	u281_20
  1511  0FC8                     u281_21:
  1512  0FC8  2FB4               	goto	i1l1886
  1513  0FC9                     u281_20:
  1514  0FC9                     i1l612:
  1515  0FC9  1879               	btfsc	___xxtofl@exp,0
  1516  0FCA  2FCC               	goto	u282_21
  1517  0FCB  2FCD               	goto	u282_20
  1518  0FCC                     u282_21:
  1519  0FCC  2FD5               	goto	i1l613
  1520  0FCD                     u282_20:
  1521  0FCD                     i1l1892:
  1522  0FCD  30FF               	movlw	255
  1523  0FCE  05FA               	andwf	___xxtofl@arg,f
  1524  0FCF  30FF               	movlw	255
  1525  0FD0  05FB               	andwf	___xxtofl@arg+1,f
  1526  0FD1  307F               	movlw	127
  1527  0FD2  05FC               	andwf	___xxtofl@arg+2,f
  1528  0FD3  30FF               	movlw	255
  1529  0FD4  05FD               	andwf	___xxtofl@arg+3,f
  1530  0FD5                     i1l613:
  1531  0FD5  1003               	clrc
  1532  0FD6  0CF9               	rrf	___xxtofl@exp,f
  1533  0FD7                     i1l1894:
  1534  0FD7  0879               	movf	___xxtofl@exp,w
  1535  0FD8  00F4               	movwf	??___xxtofl
  1536  0FD9  01F5               	clrf	??___xxtofl+1
  1537  0FDA  01F6               	clrf	??___xxtofl+2
  1538  0FDB  01F7               	clrf	??___xxtofl+3
  1539  0FDC  3018               	movlw	24
  1540  0FDD                     u283_25:
  1541  0FDD  1003               	clrc
  1542  0FDE  0DF4               	rlf	??___xxtofl,f
  1543  0FDF  0DF5               	rlf	??___xxtofl+1,f
  1544  0FE0  0DF6               	rlf	??___xxtofl+2,f
  1545  0FE1  0DF7               	rlf	??___xxtofl+3,f
  1546  0FE2                     u283_20:
  1547  0FE2  3EFF               	addlw	-1
  1548  0FE3  1D03               	skipz
  1549  0FE4  2FDD               	goto	u283_25
  1550  0FE5  0874               	movf	??___xxtofl,w
  1551  0FE6  04FA               	iorwf	___xxtofl@arg,f
  1552  0FE7  0875               	movf	??___xxtofl+1,w
  1553  0FE8  04FB               	iorwf	___xxtofl@arg+1,f
  1554  0FE9  0876               	movf	??___xxtofl+2,w
  1555  0FEA  04FC               	iorwf	___xxtofl@arg+2,f
  1556  0FEB  0877               	movf	??___xxtofl+3,w
  1557  0FEC  04FD               	iorwf	___xxtofl@arg+3,f
  1558  0FED                     i1l1896:
  1559  0FED  0878               	movf	___xxtofl@sign,w
  1560  0FEE  1903               	btfsc	3,2
  1561  0FEF  2FF1               	goto	u284_21
  1562  0FF0  2FF2               	goto	u284_20
  1563  0FF1                     u284_21:
  1564  0FF1  2FF7               	goto	i1l1902
  1565  0FF2                     u284_20:
  1566  0FF2                     i1l1898:
  1567  0FF2  1FF3               	btfss	___xxtofl@val+3,7
  1568  0FF3  2FF5               	goto	u285_21
  1569  0FF4  2FF6               	goto	u285_20
  1570  0FF5                     u285_21:
  1571  0FF5  2FF7               	goto	i1l1902
  1572  0FF6                     u285_20:
  1573  0FF6                     i1l1900:
  1574  0FF6  17FD               	bsf	___xxtofl@arg+3,7
  1575  0FF7                     i1l1902:
  1576  0FF7  087D               	movf	___xxtofl@arg+3,w
  1577  0FF8  00F3               	movwf	?___xxtofl+3
  1578  0FF9  087C               	movf	___xxtofl@arg+2,w
  1579  0FFA  00F2               	movwf	?___xxtofl+2
  1580  0FFB  087B               	movf	___xxtofl@arg+1,w
  1581  0FFC  00F1               	movwf	?___xxtofl+1
  1582  0FFD  087A               	movf	___xxtofl@arg,w
  1583  0FFE  00F0               	movwf	?___xxtofl
  1584  0FFF                     i1l601:
  1585  0FFF  0008               	return
  1586  1000                     __end_of___xxtofl:
  1587                           
  1588                           	psect	text5
  1589  0D46                     __ptext5:	
  1590 ;; *************** function ___fltol *****************
  1591 ;; Defined at:
  1592 ;;		line 43 in file "C:\Program Files\Microchip\xc8\v2.35\pic\sources\c90\common\fltol.c"
  1593 ;; Parameters:    Size  Location     Type
  1594 ;;  f1              4   72[BANK0 ] unsigned char 
  1595 ;; Auto vars:     Size  Location     Type
  1596 ;;  exp1            1   77[BANK0 ] unsigned char 
  1597 ;;  sign1           1   76[BANK0 ] unsigned char 
  1598 ;; Return value:  Size  Location     Type
  1599 ;;                  4   72[BANK0 ] long 
  1600 ;; Registers used:
  1601 ;;		wreg, status,2, status,0
  1602 ;; Tracked objects:
  1603 ;;		On entry : 0/0
  1604 ;;		On exit  : 0/0
  1605 ;;		Unchanged: 0/0
  1606 ;; Data sizes:     COMMON   BANK0   BANK1   BANK3   BANK2
  1607 ;;      Params:         0       4       0       0       0
  1608 ;;      Locals:         0       2       0       0       0
  1609 ;;      Temps:          0       0       5       0       0
  1610 ;;      Totals:         0       6       5       0       0
  1611 ;;Total ram usage:       11 bytes
  1612 ;; Hardware stack levels used: 1
  1613 ;; This function calls:
  1614 ;;		Nothing
  1615 ;; This function is called by:
  1616 ;;		_map
  1617 ;; This function uses a non-reentrant model
  1618 ;;
  1619                           
  1620  0D46                     ___fltol:	
  1621                           ;psect for function ___fltol
  1622                           
  1623  0D46                     i1l1350:	
  1624                           ;incstack = 0
  1625                           ; Regs used in ___fltol: [wreg+status,2+status,0]
  1626                           
  1627  0D46  1003               	clrc
  1628  0D47  1283               	bcf	3,5	;RP0=0, select bank0
  1629  0D48  1303               	bcf	3,6	;RP1=0, select bank0
  1630  0D49  0D6A               	rlf	___fltol@f1+2,w
  1631  0D4A  0D6B               	rlf	___fltol@f1+3,w
  1632  0D4B  1683               	bsf	3,5	;RP0=1, select bank1
  1633  0D4C  1303               	bcf	3,6	;RP1=0, select bank1
  1634  0D4D  00A0               	movwf	??___fltol^(0+128)
  1635  0D4E  0820               	movf	??___fltol^(0+128),w
  1636  0D4F  1283               	bcf	3,5	;RP0=0, select bank0
  1637  0D50  1303               	bcf	3,6	;RP1=0, select bank0
  1638  0D51  00ED               	movwf	___fltol@exp1
  1639  0D52  086D               	movf	___fltol@exp1,w
  1640  0D53  1D03               	btfss	3,2
  1641  0D54  2D56               	goto	u150_21
  1642  0D55  2D57               	goto	u150_20
  1643  0D56                     u150_21:
  1644  0D56  2D60               	goto	i1l1356
  1645  0D57                     u150_20:
  1646  0D57                     i1l1352:
  1647  0D57  3000               	movlw	0
  1648  0D58  00EB               	movwf	?___fltol+3
  1649  0D59  3000               	movlw	0
  1650  0D5A  00EA               	movwf	?___fltol+2
  1651  0D5B  3000               	movlw	0
  1652  0D5C  00E9               	movwf	?___fltol+1
  1653  0D5D  3000               	movlw	0
  1654  0D5E  00E8               	movwf	?___fltol
  1655  0D5F  2DE1               	goto	i1l352
  1656  0D60                     i1l1356:
  1657  0D60  0868               	movf	___fltol@f1,w
  1658  0D61  1683               	bsf	3,5	;RP0=1, select bank1
  1659  0D62  1303               	bcf	3,6	;RP1=0, select bank1
  1660  0D63  00A0               	movwf	??___fltol^(0+128)
  1661  0D64  1283               	bcf	3,5	;RP0=0, select bank0
  1662  0D65  1303               	bcf	3,6	;RP1=0, select bank0
  1663  0D66  0869               	movf	___fltol@f1+1,w
  1664  0D67  1683               	bsf	3,5	;RP0=1, select bank1
  1665  0D68  1303               	bcf	3,6	;RP1=0, select bank1
  1666  0D69  00A1               	movwf	(??___fltol^(0+128)+1)
  1667  0D6A  1283               	bcf	3,5	;RP0=0, select bank0
  1668  0D6B  1303               	bcf	3,6	;RP1=0, select bank0
  1669  0D6C  086A               	movf	___fltol@f1+2,w
  1670  0D6D  1683               	bsf	3,5	;RP0=1, select bank1
  1671  0D6E  1303               	bcf	3,6	;RP1=0, select bank1
  1672  0D6F  00A2               	movwf	(??___fltol^(0+128)+2)
  1673  0D70  1283               	bcf	3,5	;RP0=0, select bank0
  1674  0D71  1303               	bcf	3,6	;RP1=0, select bank0
  1675  0D72  086B               	movf	___fltol@f1+3,w
  1676  0D73  1683               	bsf	3,5	;RP0=1, select bank1
  1677  0D74  1303               	bcf	3,6	;RP1=0, select bank1
  1678  0D75  00A3               	movwf	(??___fltol^(0+128)+3)
  1679  0D76  301F               	movlw	31
  1680  0D77                     u151_25:
  1681  0D77  1003               	clrc
  1682  0D78  0CA3               	rrf	(??___fltol^(0+128)+3),f
  1683  0D79  0CA2               	rrf	(??___fltol^(0+128)+2),f
  1684  0D7A  0CA1               	rrf	(??___fltol^(0+128)+1),f
  1685  0D7B  0CA0               	rrf	??___fltol^(0+128),f
  1686  0D7C                     u151_20:
  1687  0D7C  3EFF               	addlw	-1
  1688  0D7D  1D03               	skipz
  1689  0D7E  2D77               	goto	u151_25
  1690  0D7F  0820               	movf	??___fltol^(0+128),w
  1691  0D80  00A4               	movwf	(??___fltol+4)^(0+128)
  1692  0D81  0824               	movf	(??___fltol+4)^(0+128),w
  1693  0D82  1283               	bcf	3,5	;RP0=0, select bank0
  1694  0D83  1303               	bcf	3,6	;RP1=0, select bank0
  1695  0D84  00EC               	movwf	___fltol@sign1
  1696  0D85                     i1l1358:
  1697  0D85  17EA               	bsf	___fltol@f1+2,7
  1698  0D86                     i1l1360:
  1699  0D86  30FF               	movlw	255
  1700  0D87  05E8               	andwf	___fltol@f1,f
  1701  0D88  30FF               	movlw	255
  1702  0D89  05E9               	andwf	___fltol@f1+1,f
  1703  0D8A  30FF               	movlw	255
  1704  0D8B  05EA               	andwf	___fltol@f1+2,f
  1705  0D8C  3000               	movlw	0
  1706  0D8D  05EB               	andwf	___fltol@f1+3,f
  1707  0D8E                     i1l1362:
  1708  0D8E  3096               	movlw	150
  1709  0D8F  02ED               	subwf	___fltol@exp1,f
  1710  0D90                     i1l1364:
  1711  0D90  1FED               	btfss	___fltol@exp1,7
  1712  0D91  2D93               	goto	u152_21
  1713  0D92  2D94               	goto	u152_20
  1714  0D93                     u152_21:
  1715  0D93  2DB2               	goto	i1l1374
  1716  0D94                     u152_20:
  1717  0D94                     i1l1366:
  1718  0D94  086D               	movf	___fltol@exp1,w
  1719  0D95  3A80               	xorlw	128
  1720  0D96  3E97               	addlw	151
  1721  0D97  1803               	skipnc
  1722  0D98  2D9A               	goto	u153_21
  1723  0D99  2D9B               	goto	u153_20
  1724  0D9A                     u153_21:
  1725  0D9A  2D9C               	goto	i1l1372
  1726  0D9B                     u153_20:
  1727  0D9B  2D57               	goto	i1l1352
  1728  0D9C                     i1l1372:
  1729  0D9C  3001               	movlw	1
  1730  0D9D                     u154_25:
  1731  0D9D  1003               	clrc
  1732  0D9E  0CEB               	rrf	___fltol@f1+3,f
  1733  0D9F  0CEA               	rrf	___fltol@f1+2,f
  1734  0DA0  0CE9               	rrf	___fltol@f1+1,f
  1735  0DA1  0CE8               	rrf	___fltol@f1,f
  1736  0DA2  3EFF               	addlw	-1
  1737  0DA3  1D03               	skipz
  1738  0DA4  2D9D               	goto	u154_25
  1739  0DA5  3001               	movlw	1
  1740  0DA6  1683               	bsf	3,5	;RP0=1, select bank1
  1741  0DA7  1303               	bcf	3,6	;RP1=0, select bank1
  1742  0DA8  00A0               	movwf	??___fltol^(0+128)
  1743  0DA9  0820               	movf	??___fltol^(0+128),w
  1744  0DAA  1283               	bcf	3,5	;RP0=0, select bank0
  1745  0DAB  1303               	bcf	3,6	;RP1=0, select bank0
  1746  0DAC  07ED               	addwf	___fltol@exp1,f
  1747  0DAD  1D03               	btfss	3,2
  1748  0DAE  2DB0               	goto	u155_21
  1749  0DAF  2DB1               	goto	u155_20
  1750  0DB0                     u155_21:
  1751  0DB0  2D9C               	goto	i1l1372
  1752  0DB1                     u155_20:
  1753  0DB1  2DD1               	goto	i1l1382
  1754  0DB2                     i1l1374:
  1755  0DB2  3020               	movlw	32
  1756  0DB3  026D               	subwf	___fltol@exp1,w
  1757  0DB4  1C03               	skipc
  1758  0DB5  2DB7               	goto	u156_21
  1759  0DB6  2DB8               	goto	u156_20
  1760  0DB7                     u156_21:
  1761  0DB7  2DCC               	goto	i1l359
  1762  0DB8                     u156_20:
  1763  0DB8  2D57               	goto	i1l1352
  1764  0DB9                     i1l1380:
  1765  0DB9  3001               	movlw	1
  1766  0DBA  1683               	bsf	3,5	;RP0=1, select bank1
  1767  0DBB  1303               	bcf	3,6	;RP1=0, select bank1
  1768  0DBC  00A0               	movwf	??___fltol^(0+128)
  1769  0DBD                     u157_25:
  1770  0DBD  1003               	clrc
  1771  0DBE  1283               	bcf	3,5	;RP0=0, select bank0
  1772  0DBF  1303               	bcf	3,6	;RP1=0, select bank0
  1773  0DC0  0DE8               	rlf	___fltol@f1,f
  1774  0DC1  0DE9               	rlf	___fltol@f1+1,f
  1775  0DC2  0DEA               	rlf	___fltol@f1+2,f
  1776  0DC3  0DEB               	rlf	___fltol@f1+3,f
  1777  0DC4  1683               	bsf	3,5	;RP0=1, select bank1
  1778  0DC5  1303               	bcf	3,6	;RP1=0, select bank1
  1779  0DC6  0BA0               	decfsz	??___fltol^(0+128),f
  1780  0DC7  2DBD               	goto	u157_25
  1781  0DC8  3001               	movlw	1
  1782  0DC9  1283               	bcf	3,5	;RP0=0, select bank0
  1783  0DCA  1303               	bcf	3,6	;RP1=0, select bank0
  1784  0DCB  02ED               	subwf	___fltol@exp1,f
  1785  0DCC                     i1l359:
  1786  0DCC  086D               	movf	___fltol@exp1,w
  1787  0DCD  1D03               	btfss	3,2
  1788  0DCE  2DD0               	goto	u158_21
  1789  0DCF  2DD1               	goto	u158_20
  1790  0DD0                     u158_21:
  1791  0DD0  2DB9               	goto	i1l1380
  1792  0DD1                     u158_20:
  1793  0DD1                     i1l1382:
  1794  0DD1  086C               	movf	___fltol@sign1,w
  1795  0DD2  1903               	btfsc	3,2
  1796  0DD3  2DD5               	goto	u159_21
  1797  0DD4  2DD6               	goto	u159_20
  1798  0DD5                     u159_21:
  1799  0DD5  2DE1               	goto	i1l362
  1800  0DD6                     u159_20:
  1801  0DD6                     i1l1384:
  1802  0DD6  09E8               	comf	___fltol@f1,f
  1803  0DD7  09E9               	comf	___fltol@f1+1,f
  1804  0DD8  09EA               	comf	___fltol@f1+2,f
  1805  0DD9  09EB               	comf	___fltol@f1+3,f
  1806  0DDA  0AE8               	incf	___fltol@f1,f
  1807  0DDB  1903               	skipnz
  1808  0DDC  0AE9               	incf	___fltol@f1+1,f
  1809  0DDD  1903               	skipnz
  1810  0DDE  0AEA               	incf	___fltol@f1+2,f
  1811  0DDF  1903               	skipnz
  1812  0DE0  0AEB               	incf	___fltol@f1+3,f
  1813  0DE1                     i1l362:
  1814  0DE1                     i1l352:
  1815  0DE1  0008               	return
  1816  0DE2                     __end_of___fltol:
  1817                           
  1818                           	psect	text6
  1819  001D                     __ptext6:	
  1820 ;; *************** function ___flmul *****************
  1821 ;; Defined at:
  1822 ;;		line 8 in file "C:\Program Files\Microchip\xc8\v2.35\pic\sources\c90\common\sprcmul.c"
  1823 ;; Parameters:    Size  Location     Type
  1824 ;;  b               4   26[BANK0 ] long 
  1825 ;;  a               4   30[BANK0 ] long 
  1826 ;; Auto vars:     Size  Location     Type
  1827 ;;  prod            4   46[BANK0 ] struct .
  1828 ;;  grs             4   40[BANK0 ] unsigned long 
  1829 ;;  temp            2   50[BANK0 ] struct .
  1830 ;;  bexp            1   45[BANK0 ] unsigned char 
  1831 ;;  aexp            1   44[BANK0 ] unsigned char 
  1832 ;;  sign            1   39[BANK0 ] unsigned char 
  1833 ;; Return value:  Size  Location     Type
  1834 ;;                  4   26[BANK0 ] unsigned char 
  1835 ;; Registers used:
  1836 ;;		wreg, status,2, status,0, btemp+1, pclath, cstack
  1837 ;; Tracked objects:
  1838 ;;		On entry : 0/0
  1839 ;;		On exit  : 0/0
  1840 ;;		Unchanged: 0/0
  1841 ;; Data sizes:     COMMON   BANK0   BANK1   BANK3   BANK2
  1842 ;;      Params:         0       8       0       0       0
  1843 ;;      Locals:         0      13       0       0       0
  1844 ;;      Temps:          0       5       0       0       0
  1845 ;;      Totals:         0      26       0       0       0
  1846 ;;Total ram usage:       26 bytes
  1847 ;; Hardware stack levels used: 1
  1848 ;; Hardware stack levels required when called: 1
  1849 ;; This function calls:
  1850 ;;		__Umul8_16
  1851 ;; This function is called by:
  1852 ;;		_map
  1853 ;; This function uses a non-reentrant model
  1854 ;;
  1855                           
  1856  001D                     ___flmul:	
  1857                           ;psect for function ___flmul
  1858                           
  1859  001D                     i1l1722:	
  1860                           ;incstack = 0
  1861                           ; Regs used in ___flmul: [wreg+status,2+status,0+btemp+1+pclath+cstack]
  1862                           
  1863  001D  1283               	bcf	3,5	;RP0=0, select bank0
  1864  001E  1303               	bcf	3,6	;RP1=0, select bank0
  1865  001F  083D               	movf	___flmul@b+3,w
  1866  0020  3980               	andlw	128
  1867  0021  00C2               	movwf	??___flmul
  1868  0022  0842               	movf	??___flmul,w
  1869  0023  00C7               	movwf	___flmul@sign
  1870  0024                     i1l1724:
  1871  0024  083D               	movf	___flmul@b+3,w
  1872  0025  00C2               	movwf	??___flmul
  1873  0026  0742               	addwf	??___flmul,w
  1874  0027  00C3               	movwf	??___flmul+1
  1875  0028  0843               	movf	??___flmul+1,w
  1876  0029  00CD               	movwf	___flmul@bexp
  1877  002A                     i1l1726:
  1878  002A  1FBC               	btfss	___flmul@b+2,7
  1879  002B  282D               	goto	u235_21
  1880  002C  282E               	goto	u235_20
  1881  002D                     u235_21:
  1882  002D  282F               	goto	i1l1730
  1883  002E                     u235_20:
  1884  002E                     i1l1728:
  1885  002E  144D               	bsf	___flmul@bexp,0
  1886  002F                     i1l1730:
  1887  002F  084D               	movf	___flmul@bexp,w
  1888  0030  1903               	btfsc	3,2
  1889  0031  2833               	goto	u236_21
  1890  0032  2834               	goto	u236_20
  1891  0033                     u236_21:
  1892  0033  2843               	goto	i1l1738
  1893  0034                     u236_20:
  1894  0034                     i1l1732:
  1895  0034  0A4D               	incf	___flmul@bexp,w
  1896  0035  1D03               	btfss	3,2
  1897  0036  2838               	goto	u237_21
  1898  0037  2839               	goto	u237_20
  1899  0038                     u237_21:
  1900  0038  2841               	goto	i1l1736
  1901  0039                     u237_20:
  1902  0039                     i1l1734:
  1903  0039  3000               	movlw	0
  1904  003A  00BD               	movwf	___flmul@b+3
  1905  003B  3000               	movlw	0
  1906  003C  00BC               	movwf	___flmul@b+2
  1907  003D  3000               	movlw	0
  1908  003E  00BB               	movwf	___flmul@b+1
  1909  003F  3000               	movlw	0
  1910  0040  00BA               	movwf	___flmul@b
  1911  0041                     i1l1736:
  1912  0041  17BC               	bsf	___flmul@b+2,7
  1913  0042  284B               	goto	i1l1740
  1914  0043                     i1l1738:
  1915  0043  3000               	movlw	0
  1916  0044  00BD               	movwf	___flmul@b+3
  1917  0045  3000               	movlw	0
  1918  0046  00BC               	movwf	___flmul@b+2
  1919  0047  3000               	movlw	0
  1920  0048  00BB               	movwf	___flmul@b+1
  1921  0049  3000               	movlw	0
  1922  004A  00BA               	movwf	___flmul@b
  1923  004B                     i1l1740:
  1924  004B  0841               	movf	___flmul@a+3,w
  1925  004C  3980               	andlw	128
  1926  004D  00C2               	movwf	??___flmul
  1927  004E  0842               	movf	??___flmul,w
  1928  004F  06C7               	xorwf	___flmul@sign,f
  1929  0050                     i1l1742:
  1930  0050  0841               	movf	___flmul@a+3,w
  1931  0051  00C2               	movwf	??___flmul
  1932  0052  0742               	addwf	??___flmul,w
  1933  0053  00C3               	movwf	??___flmul+1
  1934  0054  0843               	movf	??___flmul+1,w
  1935  0055  00CC               	movwf	___flmul@aexp
  1936  0056                     i1l1744:
  1937  0056  1FC0               	btfss	___flmul@a+2,7
  1938  0057  2859               	goto	u238_21
  1939  0058  285A               	goto	u238_20
  1940  0059                     u238_21:
  1941  0059  285B               	goto	i1l1748
  1942  005A                     u238_20:
  1943  005A                     i1l1746:
  1944  005A  144C               	bsf	___flmul@aexp,0
  1945  005B                     i1l1748:
  1946  005B  084C               	movf	___flmul@aexp,w
  1947  005C  1903               	btfsc	3,2
  1948  005D  285F               	goto	u239_21
  1949  005E  2860               	goto	u239_20
  1950  005F                     u239_21:
  1951  005F  286F               	goto	i1l1756
  1952  0060                     u239_20:
  1953  0060                     i1l1750:
  1954  0060  0A4C               	incf	___flmul@aexp,w
  1955  0061  1D03               	btfss	3,2
  1956  0062  2864               	goto	u240_21
  1957  0063  2865               	goto	u240_20
  1958  0064                     u240_21:
  1959  0064  286D               	goto	i1l1754
  1960  0065                     u240_20:
  1961  0065                     i1l1752:
  1962  0065  3000               	movlw	0
  1963  0066  00C1               	movwf	___flmul@a+3
  1964  0067  3000               	movlw	0
  1965  0068  00C0               	movwf	___flmul@a+2
  1966  0069  3000               	movlw	0
  1967  006A  00BF               	movwf	___flmul@a+1
  1968  006B  3000               	movlw	0
  1969  006C  00BE               	movwf	___flmul@a
  1970  006D                     i1l1754:
  1971  006D  17C0               	bsf	___flmul@a+2,7
  1972  006E  2877               	goto	i1l1758
  1973  006F                     i1l1756:
  1974  006F  3000               	movlw	0
  1975  0070  00C1               	movwf	___flmul@a+3
  1976  0071  3000               	movlw	0
  1977  0072  00C0               	movwf	___flmul@a+2
  1978  0073  3000               	movlw	0
  1979  0074  00BF               	movwf	___flmul@a+1
  1980  0075  3000               	movlw	0
  1981  0076  00BE               	movwf	___flmul@a
  1982  0077                     i1l1758:
  1983  0077  084C               	movf	___flmul@aexp,w
  1984  0078  1903               	btfsc	3,2
  1985  0079  287B               	goto	u241_21
  1986  007A  287C               	goto	u241_20
  1987  007B                     u241_21:
  1988  007B  2881               	goto	i1l1762
  1989  007C                     u241_20:
  1990  007C                     i1l1760:
  1991  007C  084D               	movf	___flmul@bexp,w
  1992  007D  1D03               	btfss	3,2
  1993  007E  2880               	goto	u242_21
  1994  007F  2881               	goto	u242_20
  1995  0080                     u242_21:
  1996  0080  288A               	goto	i1l1766
  1997  0081                     u242_20:
  1998  0081                     i1l1762:
  1999  0081  3000               	movlw	0
  2000  0082  00BD               	movwf	?___flmul+3
  2001  0083  3000               	movlw	0
  2002  0084  00BC               	movwf	?___flmul+2
  2003  0085  3000               	movlw	0
  2004  0086  00BB               	movwf	?___flmul+1
  2005  0087  3000               	movlw	0
  2006  0088  00BA               	movwf	?___flmul
  2007  0089  2B7D               	goto	i1l555
  2008  008A                     i1l1766:
  2009  008A  083A               	movf	___flmul@b,w
  2010  008B  00C2               	movwf	??___flmul
  2011  008C  0842               	movf	??___flmul,w
  2012  008D  00F0               	movwf	__Umul8_16@multiplicand
  2013  008E  0840               	movf	___flmul@a+2,w
  2014  008F  120A  158A  248D  120A  118A  	fcall	__Umul8_16
  2015  0094  0871               	movf	?__Umul8_16+1,w
  2016  0095  1283               	bcf	3,5	;RP0=0, select bank0
  2017  0096  1303               	bcf	3,6	;RP1=0, select bank0
  2018  0097  00D3               	movwf	___flmul@temp+1
  2019  0098  0870               	movf	?__Umul8_16,w
  2020  0099  00D2               	movwf	___flmul@temp
  2021  009A                     i1l1768:
  2022  009A  0852               	movf	___flmul@temp,w
  2023  009B  00C2               	movwf	??___flmul
  2024  009C  01C3               	clrf	??___flmul+1
  2025  009D  01C4               	clrf	??___flmul+2
  2026  009E  01C5               	clrf	??___flmul+3
  2027  009F  0845               	movf	??___flmul+3,w
  2028  00A0  00CB               	movwf	___flmul@grs+3
  2029  00A1  0844               	movf	??___flmul+2,w
  2030  00A2  00CA               	movwf	___flmul@grs+2
  2031  00A3  0843               	movf	??___flmul+1,w
  2032  00A4  00C9               	movwf	___flmul@grs+1
  2033  00A5  0842               	movf	??___flmul,w
  2034  00A6  00C8               	movwf	___flmul@grs
  2035  00A7                     i1l1770:
  2036  00A7  0853               	movf	___flmul@temp+1,w
  2037  00A8  00C2               	movwf	??___flmul
  2038  00A9  01C3               	clrf	??___flmul+1
  2039  00AA  01C4               	clrf	??___flmul+2
  2040  00AB  01C5               	clrf	??___flmul+3
  2041  00AC  0845               	movf	??___flmul+3,w
  2042  00AD  00D1               	movwf	___flmul@prod+3
  2043  00AE  0844               	movf	??___flmul+2,w
  2044  00AF  00D0               	movwf	___flmul@prod+2
  2045  00B0  0843               	movf	??___flmul+1,w
  2046  00B1  00CF               	movwf	___flmul@prod+1
  2047  00B2  0842               	movf	??___flmul,w
  2048  00B3  00CE               	movwf	___flmul@prod
  2049  00B4  083B               	movf	___flmul@b+1,w
  2050  00B5  00C2               	movwf	??___flmul
  2051  00B6  0842               	movf	??___flmul,w
  2052  00B7  00F0               	movwf	__Umul8_16@multiplicand
  2053  00B8  083F               	movf	___flmul@a+1,w
  2054  00B9  120A  158A  248D  120A  118A  	fcall	__Umul8_16
  2055  00BE  0871               	movf	?__Umul8_16+1,w
  2056  00BF  1283               	bcf	3,5	;RP0=0, select bank0
  2057  00C0  1303               	bcf	3,6	;RP1=0, select bank0
  2058  00C1  00D3               	movwf	___flmul@temp+1
  2059  00C2  0870               	movf	?__Umul8_16,w
  2060  00C3  00D2               	movwf	___flmul@temp
  2061  00C4                     i1l1772:
  2062  00C4  0852               	movf	___flmul@temp,w
  2063  00C5  00C2               	movwf	??___flmul
  2064  00C6  01C3               	clrf	??___flmul+1
  2065  00C7  01C4               	clrf	??___flmul+2
  2066  00C8  01C5               	clrf	??___flmul+3
  2067  00C9  0842               	movf	??___flmul,w
  2068  00CA  07C8               	addwf	___flmul@grs,f
  2069  00CB  0843               	movf	??___flmul+1,w
  2070  00CC  1103               	clrz
  2071  00CD  1803               	skipnc
  2072  00CE  3E01               	addlw	1
  2073  00CF  1903               	skipnz
  2074  00D0  28D2               	goto	u243_21
  2075  00D1  07C9               	addwf	___flmul@grs+1,f
  2076  00D2                     u243_21:
  2077  00D2  0844               	movf	??___flmul+2,w
  2078  00D3  1103               	clrz
  2079  00D4  1803               	skipnc
  2080  00D5  3E01               	addlw	1
  2081  00D6  1903               	skipnz
  2082  00D7  28D9               	goto	u243_22
  2083  00D8  07CA               	addwf	___flmul@grs+2,f
  2084  00D9                     u243_22:
  2085  00D9  0845               	movf	??___flmul+3,w
  2086  00DA  1103               	clrz
  2087  00DB  1803               	skipnc
  2088  00DC  3E01               	addlw	1
  2089  00DD  1903               	skipnz
  2090  00DE  28E0               	goto	u243_23
  2091  00DF  07CB               	addwf	___flmul@grs+3,f
  2092  00E0                     u243_23:
  2093  00E0                     i1l1774:
  2094  00E0  0853               	movf	___flmul@temp+1,w
  2095  00E1  00C2               	movwf	??___flmul
  2096  00E2  01C3               	clrf	??___flmul+1
  2097  00E3  01C4               	clrf	??___flmul+2
  2098  00E4  01C5               	clrf	??___flmul+3
  2099  00E5  0842               	movf	??___flmul,w
  2100  00E6  07CE               	addwf	___flmul@prod,f
  2101  00E7  0843               	movf	??___flmul+1,w
  2102  00E8  1103               	clrz
  2103  00E9  1803               	skipnc
  2104  00EA  3E01               	addlw	1
  2105  00EB  1903               	skipnz
  2106  00EC  28EE               	goto	u244_21
  2107  00ED  07CF               	addwf	___flmul@prod+1,f
  2108  00EE                     u244_21:
  2109  00EE  0844               	movf	??___flmul+2,w
  2110  00EF  1103               	clrz
  2111  00F0  1803               	skipnc
  2112  00F1  3E01               	addlw	1
  2113  00F2  1903               	skipnz
  2114  00F3  28F5               	goto	u244_22
  2115  00F4  07D0               	addwf	___flmul@prod+2,f
  2116  00F5                     u244_22:
  2117  00F5  0845               	movf	??___flmul+3,w
  2118  00F6  1103               	clrz
  2119  00F7  1803               	skipnc
  2120  00F8  3E01               	addlw	1
  2121  00F9  1903               	skipnz
  2122  00FA  28FC               	goto	u244_23
  2123  00FB  07D1               	addwf	___flmul@prod+3,f
  2124  00FC                     u244_23:
  2125  00FC  083C               	movf	___flmul@b+2,w
  2126  00FD  00C2               	movwf	??___flmul
  2127  00FE  0842               	movf	??___flmul,w
  2128  00FF  00F0               	movwf	__Umul8_16@multiplicand
  2129  0100  083E               	movf	___flmul@a,w
  2130  0101  120A  158A  248D  120A  118A  	fcall	__Umul8_16
  2131  0106  0871               	movf	?__Umul8_16+1,w
  2132  0107  1283               	bcf	3,5	;RP0=0, select bank0
  2133  0108  1303               	bcf	3,6	;RP1=0, select bank0
  2134  0109  00D3               	movwf	___flmul@temp+1
  2135  010A  0870               	movf	?__Umul8_16,w
  2136  010B  00D2               	movwf	___flmul@temp
  2137  010C                     i1l1776:
  2138  010C  0852               	movf	___flmul@temp,w
  2139  010D  00C2               	movwf	??___flmul
  2140  010E  01C3               	clrf	??___flmul+1
  2141  010F  01C4               	clrf	??___flmul+2
  2142  0110  01C5               	clrf	??___flmul+3
  2143  0111  0842               	movf	??___flmul,w
  2144  0112  07C8               	addwf	___flmul@grs,f
  2145  0113  0843               	movf	??___flmul+1,w
  2146  0114  1103               	clrz
  2147  0115  1803               	skipnc
  2148  0116  3E01               	addlw	1
  2149  0117  1903               	skipnz
  2150  0118  291A               	goto	u245_21
  2151  0119  07C9               	addwf	___flmul@grs+1,f
  2152  011A                     u245_21:
  2153  011A  0844               	movf	??___flmul+2,w
  2154  011B  1103               	clrz
  2155  011C  1803               	skipnc
  2156  011D  3E01               	addlw	1
  2157  011E  1903               	skipnz
  2158  011F  2921               	goto	u245_22
  2159  0120  07CA               	addwf	___flmul@grs+2,f
  2160  0121                     u245_22:
  2161  0121  0845               	movf	??___flmul+3,w
  2162  0122  1103               	clrz
  2163  0123  1803               	skipnc
  2164  0124  3E01               	addlw	1
  2165  0125  1903               	skipnz
  2166  0126  2928               	goto	u245_23
  2167  0127  07CB               	addwf	___flmul@grs+3,f
  2168  0128                     u245_23:
  2169  0128                     i1l1778:
  2170  0128  0853               	movf	___flmul@temp+1,w
  2171  0129  00C2               	movwf	??___flmul
  2172  012A  01C3               	clrf	??___flmul+1
  2173  012B  01C4               	clrf	??___flmul+2
  2174  012C  01C5               	clrf	??___flmul+3
  2175  012D  0842               	movf	??___flmul,w
  2176  012E  07CE               	addwf	___flmul@prod,f
  2177  012F  0843               	movf	??___flmul+1,w
  2178  0130  1103               	clrz
  2179  0131  1803               	skipnc
  2180  0132  3E01               	addlw	1
  2181  0133  1903               	skipnz
  2182  0134  2936               	goto	u246_21
  2183  0135  07CF               	addwf	___flmul@prod+1,f
  2184  0136                     u246_21:
  2185  0136  0844               	movf	??___flmul+2,w
  2186  0137  1103               	clrz
  2187  0138  1803               	skipnc
  2188  0139  3E01               	addlw	1
  2189  013A  1903               	skipnz
  2190  013B  293D               	goto	u246_22
  2191  013C  07D0               	addwf	___flmul@prod+2,f
  2192  013D                     u246_22:
  2193  013D  0845               	movf	??___flmul+3,w
  2194  013E  1103               	clrz
  2195  013F  1803               	skipnc
  2196  0140  3E01               	addlw	1
  2197  0141  1903               	skipnz
  2198  0142  2944               	goto	u246_23
  2199  0143  07D1               	addwf	___flmul@prod+3,f
  2200  0144                     u246_23:
  2201  0144                     i1l1780:
  2202  0144  3008               	movlw	8
  2203  0145  00C2               	movwf	??___flmul
  2204  0146                     u247_25:
  2205  0146  1003               	clrc
  2206  0147  0DC8               	rlf	___flmul@grs,f
  2207  0148  0DC9               	rlf	___flmul@grs+1,f
  2208  0149  0DCA               	rlf	___flmul@grs+2,f
  2209  014A  0DCB               	rlf	___flmul@grs+3,f
  2210  014B  0BC2               	decfsz	??___flmul,f
  2211  014C  2946               	goto	u247_25
  2212  014D                     i1l1782:
  2213  014D  083B               	movf	___flmul@b+1,w
  2214  014E  00C2               	movwf	??___flmul
  2215  014F  0842               	movf	??___flmul,w
  2216  0150  00F0               	movwf	__Umul8_16@multiplicand
  2217  0151  083E               	movf	___flmul@a,w
  2218  0152  120A  158A  248D  120A  118A  	fcall	__Umul8_16
  2219  0157  0871               	movf	?__Umul8_16+1,w
  2220  0158  1283               	bcf	3,5	;RP0=0, select bank0
  2221  0159  1303               	bcf	3,6	;RP1=0, select bank0
  2222  015A  00D3               	movwf	___flmul@temp+1
  2223  015B  0870               	movf	?__Umul8_16,w
  2224  015C  00D2               	movwf	___flmul@temp
  2225  015D                     i1l1784:
  2226  015D  0852               	movf	___flmul@temp,w
  2227  015E  00C2               	movwf	??___flmul
  2228  015F  0853               	movf	___flmul@temp+1,w
  2229  0160  00C3               	movwf	??___flmul+1
  2230  0161  01C4               	clrf	??___flmul+2
  2231  0162  01C5               	clrf	??___flmul+3
  2232  0163  0842               	movf	??___flmul,w
  2233  0164  07C8               	addwf	___flmul@grs,f
  2234  0165  0843               	movf	??___flmul+1,w
  2235  0166  1103               	clrz
  2236  0167  1803               	skipnc
  2237  0168  3E01               	addlw	1
  2238  0169  1903               	skipnz
  2239  016A  296C               	goto	u248_21
  2240  016B  07C9               	addwf	___flmul@grs+1,f
  2241  016C                     u248_21:
  2242  016C  0844               	movf	??___flmul+2,w
  2243  016D  1103               	clrz
  2244  016E  1803               	skipnc
  2245  016F  3E01               	addlw	1
  2246  0170  1903               	skipnz
  2247  0171  2973               	goto	u248_22
  2248  0172  07CA               	addwf	___flmul@grs+2,f
  2249  0173                     u248_22:
  2250  0173  0845               	movf	??___flmul+3,w
  2251  0174  1103               	clrz
  2252  0175  1803               	skipnc
  2253  0176  3E01               	addlw	1
  2254  0177  1903               	skipnz
  2255  0178  297A               	goto	u248_23
  2256  0179  07CB               	addwf	___flmul@grs+3,f
  2257  017A                     u248_23:
  2258  017A                     i1l1786:
  2259  017A  083A               	movf	___flmul@b,w
  2260  017B  00C2               	movwf	??___flmul
  2261  017C  0842               	movf	??___flmul,w
  2262  017D  00F0               	movwf	__Umul8_16@multiplicand
  2263  017E  083F               	movf	___flmul@a+1,w
  2264  017F  120A  158A  248D  120A  118A  	fcall	__Umul8_16
  2265  0184  0871               	movf	?__Umul8_16+1,w
  2266  0185  1283               	bcf	3,5	;RP0=0, select bank0
  2267  0186  1303               	bcf	3,6	;RP1=0, select bank0
  2268  0187  00D3               	movwf	___flmul@temp+1
  2269  0188  0870               	movf	?__Umul8_16,w
  2270  0189  00D2               	movwf	___flmul@temp
  2271  018A                     i1l1788:
  2272  018A  0852               	movf	___flmul@temp,w
  2273  018B  00C2               	movwf	??___flmul
  2274  018C  0853               	movf	___flmul@temp+1,w
  2275  018D  00C3               	movwf	??___flmul+1
  2276  018E  01C4               	clrf	??___flmul+2
  2277  018F  01C5               	clrf	??___flmul+3
  2278  0190  0842               	movf	??___flmul,w
  2279  0191  07C8               	addwf	___flmul@grs,f
  2280  0192  0843               	movf	??___flmul+1,w
  2281  0193  1103               	clrz
  2282  0194  1803               	skipnc
  2283  0195  3E01               	addlw	1
  2284  0196  1903               	skipnz
  2285  0197  2999               	goto	u249_21
  2286  0198  07C9               	addwf	___flmul@grs+1,f
  2287  0199                     u249_21:
  2288  0199  0844               	movf	??___flmul+2,w
  2289  019A  1103               	clrz
  2290  019B  1803               	skipnc
  2291  019C  3E01               	addlw	1
  2292  019D  1903               	skipnz
  2293  019E  29A0               	goto	u249_22
  2294  019F  07CA               	addwf	___flmul@grs+2,f
  2295  01A0                     u249_22:
  2296  01A0  0845               	movf	??___flmul+3,w
  2297  01A1  1103               	clrz
  2298  01A2  1803               	skipnc
  2299  01A3  3E01               	addlw	1
  2300  01A4  1903               	skipnz
  2301  01A5  29A7               	goto	u249_23
  2302  01A6  07CB               	addwf	___flmul@grs+3,f
  2303  01A7                     u249_23:
  2304  01A7                     i1l1790:
  2305  01A7  3008               	movlw	8
  2306  01A8  00C2               	movwf	??___flmul
  2307  01A9                     u250_25:
  2308  01A9  1003               	clrc
  2309  01AA  0DC8               	rlf	___flmul@grs,f
  2310  01AB  0DC9               	rlf	___flmul@grs+1,f
  2311  01AC  0DCA               	rlf	___flmul@grs+2,f
  2312  01AD  0DCB               	rlf	___flmul@grs+3,f
  2313  01AE  0BC2               	decfsz	??___flmul,f
  2314  01AF  29A9               	goto	u250_25
  2315  01B0  083A               	movf	___flmul@b,w
  2316  01B1  00C2               	movwf	??___flmul
  2317  01B2  0842               	movf	??___flmul,w
  2318  01B3  00F0               	movwf	__Umul8_16@multiplicand
  2319  01B4  083E               	movf	___flmul@a,w
  2320  01B5  120A  158A  248D  120A  118A  	fcall	__Umul8_16
  2321  01BA  0871               	movf	?__Umul8_16+1,w
  2322  01BB  1283               	bcf	3,5	;RP0=0, select bank0
  2323  01BC  1303               	bcf	3,6	;RP1=0, select bank0
  2324  01BD  00D3               	movwf	___flmul@temp+1
  2325  01BE  0870               	movf	?__Umul8_16,w
  2326  01BF  00D2               	movwf	___flmul@temp
  2327  01C0                     i1l1792:
  2328  01C0  0852               	movf	___flmul@temp,w
  2329  01C1  00C2               	movwf	??___flmul
  2330  01C2  0853               	movf	___flmul@temp+1,w
  2331  01C3  00C3               	movwf	??___flmul+1
  2332  01C4  01C4               	clrf	??___flmul+2
  2333  01C5  01C5               	clrf	??___flmul+3
  2334  01C6  0842               	movf	??___flmul,w
  2335  01C7  07C8               	addwf	___flmul@grs,f
  2336  01C8  0843               	movf	??___flmul+1,w
  2337  01C9  1103               	clrz
  2338  01CA  1803               	skipnc
  2339  01CB  3E01               	addlw	1
  2340  01CC  1903               	skipnz
  2341  01CD  29CF               	goto	u251_21
  2342  01CE  07C9               	addwf	___flmul@grs+1,f
  2343  01CF                     u251_21:
  2344  01CF  0844               	movf	??___flmul+2,w
  2345  01D0  1103               	clrz
  2346  01D1  1803               	skipnc
  2347  01D2  3E01               	addlw	1
  2348  01D3  1903               	skipnz
  2349  01D4  29D6               	goto	u251_22
  2350  01D5  07CA               	addwf	___flmul@grs+2,f
  2351  01D6                     u251_22:
  2352  01D6  0845               	movf	??___flmul+3,w
  2353  01D7  1103               	clrz
  2354  01D8  1803               	skipnc
  2355  01D9  3E01               	addlw	1
  2356  01DA  1903               	skipnz
  2357  01DB  29DD               	goto	u251_23
  2358  01DC  07CB               	addwf	___flmul@grs+3,f
  2359  01DD                     u251_23:
  2360  01DD                     i1l1794:
  2361  01DD  083B               	movf	___flmul@b+1,w
  2362  01DE  00C2               	movwf	??___flmul
  2363  01DF  0842               	movf	??___flmul,w
  2364  01E0  00F0               	movwf	__Umul8_16@multiplicand
  2365  01E1  0840               	movf	___flmul@a+2,w
  2366  01E2  120A  158A  248D  120A  118A  	fcall	__Umul8_16
  2367  01E7  0871               	movf	?__Umul8_16+1,w
  2368  01E8  1283               	bcf	3,5	;RP0=0, select bank0
  2369  01E9  1303               	bcf	3,6	;RP1=0, select bank0
  2370  01EA  00D3               	movwf	___flmul@temp+1
  2371  01EB  0870               	movf	?__Umul8_16,w
  2372  01EC  00D2               	movwf	___flmul@temp
  2373  01ED  0852               	movf	___flmul@temp,w
  2374  01EE  00C2               	movwf	??___flmul
  2375  01EF  0853               	movf	___flmul@temp+1,w
  2376  01F0  00C3               	movwf	??___flmul+1
  2377  01F1  01C4               	clrf	??___flmul+2
  2378  01F2  01C5               	clrf	??___flmul+3
  2379  01F3  0842               	movf	??___flmul,w
  2380  01F4  07CE               	addwf	___flmul@prod,f
  2381  01F5  0843               	movf	??___flmul+1,w
  2382  01F6  1103               	clrz
  2383  01F7  1803               	skipnc
  2384  01F8  3E01               	addlw	1
  2385  01F9  1903               	skipnz
  2386  01FA  29FC               	goto	u252_21
  2387  01FB  07CF               	addwf	___flmul@prod+1,f
  2388  01FC                     u252_21:
  2389  01FC  0844               	movf	??___flmul+2,w
  2390  01FD  1103               	clrz
  2391  01FE  1803               	skipnc
  2392  01FF  3E01               	addlw	1
  2393  0200  1903               	skipnz
  2394  0201  2A03               	goto	u252_22
  2395  0202  07D0               	addwf	___flmul@prod+2,f
  2396  0203                     u252_22:
  2397  0203  0845               	movf	??___flmul+3,w
  2398  0204  1103               	clrz
  2399  0205  1803               	skipnc
  2400  0206  3E01               	addlw	1
  2401  0207  1903               	skipnz
  2402  0208  2A0A               	goto	u252_23
  2403  0209  07D1               	addwf	___flmul@prod+3,f
  2404  020A                     u252_23:
  2405  020A                     i1l1796:
  2406  020A  083C               	movf	___flmul@b+2,w
  2407  020B  00C2               	movwf	??___flmul
  2408  020C  0842               	movf	??___flmul,w
  2409  020D  00F0               	movwf	__Umul8_16@multiplicand
  2410  020E  083F               	movf	___flmul@a+1,w
  2411  020F  120A  158A  248D  120A  118A  	fcall	__Umul8_16
  2412  0214  0871               	movf	?__Umul8_16+1,w
  2413  0215  1283               	bcf	3,5	;RP0=0, select bank0
  2414  0216  1303               	bcf	3,6	;RP1=0, select bank0
  2415  0217  00D3               	movwf	___flmul@temp+1
  2416  0218  0870               	movf	?__Umul8_16,w
  2417  0219  00D2               	movwf	___flmul@temp
  2418  021A                     i1l1798:
  2419  021A  0852               	movf	___flmul@temp,w
  2420  021B  00C2               	movwf	??___flmul
  2421  021C  0853               	movf	___flmul@temp+1,w
  2422  021D  00C3               	movwf	??___flmul+1
  2423  021E  01C4               	clrf	??___flmul+2
  2424  021F  01C5               	clrf	??___flmul+3
  2425  0220  0842               	movf	??___flmul,w
  2426  0221  07CE               	addwf	___flmul@prod,f
  2427  0222  0843               	movf	??___flmul+1,w
  2428  0223  1103               	clrz
  2429  0224  1803               	skipnc
  2430  0225  3E01               	addlw	1
  2431  0226  1903               	skipnz
  2432  0227  2A29               	goto	u253_21
  2433  0228  07CF               	addwf	___flmul@prod+1,f
  2434  0229                     u253_21:
  2435  0229  0844               	movf	??___flmul+2,w
  2436  022A  1103               	clrz
  2437  022B  1803               	skipnc
  2438  022C  3E01               	addlw	1
  2439  022D  1903               	skipnz
  2440  022E  2A30               	goto	u253_22
  2441  022F  07D0               	addwf	___flmul@prod+2,f
  2442  0230                     u253_22:
  2443  0230  0845               	movf	??___flmul+3,w
  2444  0231  1103               	clrz
  2445  0232  1803               	skipnc
  2446  0233  3E01               	addlw	1
  2447  0234  1903               	skipnz
  2448  0235  2A37               	goto	u253_23
  2449  0236  07D1               	addwf	___flmul@prod+3,f
  2450  0237                     u253_23:
  2451  0237  083C               	movf	___flmul@b+2,w
  2452  0238  00C2               	movwf	??___flmul
  2453  0239  0842               	movf	??___flmul,w
  2454  023A  00F0               	movwf	__Umul8_16@multiplicand
  2455  023B  0840               	movf	___flmul@a+2,w
  2456  023C  120A  158A  248D  120A  118A  	fcall	__Umul8_16
  2457  0241  0871               	movf	?__Umul8_16+1,w
  2458  0242  1283               	bcf	3,5	;RP0=0, select bank0
  2459  0243  1303               	bcf	3,6	;RP1=0, select bank0
  2460  0244  00D3               	movwf	___flmul@temp+1
  2461  0245  0870               	movf	?__Umul8_16,w
  2462  0246  00D2               	movwf	___flmul@temp
  2463  0247                     i1l1800:
  2464  0247  0852               	movf	___flmul@temp,w
  2465  0248  00C2               	movwf	??___flmul
  2466  0249  0853               	movf	___flmul@temp+1,w
  2467  024A  00C3               	movwf	??___flmul+1
  2468  024B  01C4               	clrf	??___flmul+2
  2469  024C  01C5               	clrf	??___flmul+3
  2470  024D  3008               	movlw	8
  2471  024E                     u254_25:
  2472  024E  1003               	clrc
  2473  024F  0DC2               	rlf	??___flmul,f
  2474  0250  0DC3               	rlf	??___flmul+1,f
  2475  0251  0DC4               	rlf	??___flmul+2,f
  2476  0252  0DC5               	rlf	??___flmul+3,f
  2477  0253                     u254_20:
  2478  0253  3EFF               	addlw	-1
  2479  0254  1D03               	skipz
  2480  0255  2A4E               	goto	u254_25
  2481  0256  0842               	movf	??___flmul,w
  2482  0257  07CE               	addwf	___flmul@prod,f
  2483  0258  0843               	movf	??___flmul+1,w
  2484  0259  1103               	clrz
  2485  025A  1803               	skipnc
  2486  025B  3E01               	addlw	1
  2487  025C  1903               	skipnz
  2488  025D  2A5F               	goto	u255_21
  2489  025E  07CF               	addwf	___flmul@prod+1,f
  2490  025F                     u255_21:
  2491  025F  0844               	movf	??___flmul+2,w
  2492  0260  1103               	clrz
  2493  0261  1803               	skipnc
  2494  0262  3E01               	addlw	1
  2495  0263  1903               	skipnz
  2496  0264  2A66               	goto	u255_22
  2497  0265  07D0               	addwf	___flmul@prod+2,f
  2498  0266                     u255_22:
  2499  0266  0845               	movf	??___flmul+3,w
  2500  0267  1103               	clrz
  2501  0268  1803               	skipnc
  2502  0269  3E01               	addlw	1
  2503  026A  1903               	skipnz
  2504  026B  2A6D               	goto	u255_23
  2505  026C  07D1               	addwf	___flmul@prod+3,f
  2506  026D                     u255_23:
  2507  026D                     i1l1802:
  2508  026D  0848               	movf	___flmul@grs,w
  2509  026E  00C2               	movwf	??___flmul
  2510  026F  0849               	movf	___flmul@grs+1,w
  2511  0270  00C3               	movwf	??___flmul+1
  2512  0271  084A               	movf	___flmul@grs+2,w
  2513  0272  00C4               	movwf	??___flmul+2
  2514  0273  084B               	movf	___flmul@grs+3,w
  2515  0274  00C5               	movwf	??___flmul+3
  2516  0275  3018               	movlw	24
  2517  0276                     u256_25:
  2518  0276  1003               	clrc
  2519  0277  0CC5               	rrf	??___flmul+3,f
  2520  0278  0CC4               	rrf	??___flmul+2,f
  2521  0279  0CC3               	rrf	??___flmul+1,f
  2522  027A  0CC2               	rrf	??___flmul,f
  2523  027B                     u256_20:
  2524  027B  3EFF               	addlw	-1
  2525  027C  1D03               	skipz
  2526  027D  2A76               	goto	u256_25
  2527  027E  0842               	movf	??___flmul,w
  2528  027F  07CE               	addwf	___flmul@prod,f
  2529  0280  0843               	movf	??___flmul+1,w
  2530  0281  1103               	clrz
  2531  0282  1803               	skipnc
  2532  0283  3E01               	addlw	1
  2533  0284  1903               	skipnz
  2534  0285  2A87               	goto	u257_21
  2535  0286  07CF               	addwf	___flmul@prod+1,f
  2536  0287                     u257_21:
  2537  0287  0844               	movf	??___flmul+2,w
  2538  0288  1103               	clrz
  2539  0289  1803               	skipnc
  2540  028A  3E01               	addlw	1
  2541  028B  1903               	skipnz
  2542  028C  2A8E               	goto	u257_22
  2543  028D  07D0               	addwf	___flmul@prod+2,f
  2544  028E                     u257_22:
  2545  028E  0845               	movf	??___flmul+3,w
  2546  028F  1103               	clrz
  2547  0290  1803               	skipnc
  2548  0291  3E01               	addlw	1
  2549  0292  1903               	skipnz
  2550  0293  2A95               	goto	u257_23
  2551  0294  07D1               	addwf	___flmul@prod+3,f
  2552  0295                     u257_23:
  2553  0295                     i1l1804:
  2554  0295  3008               	movlw	8
  2555  0296  00C2               	movwf	??___flmul
  2556  0297                     u258_25:
  2557  0297  1003               	clrc
  2558  0298  0DC8               	rlf	___flmul@grs,f
  2559  0299  0DC9               	rlf	___flmul@grs+1,f
  2560  029A  0DCA               	rlf	___flmul@grs+2,f
  2561  029B  0DCB               	rlf	___flmul@grs+3,f
  2562  029C  0BC2               	decfsz	??___flmul,f
  2563  029D  2A97               	goto	u258_25
  2564  029E                     i1l1806:
  2565  029E  084D               	movf	___flmul@bexp,w
  2566  029F  074C               	addwf	___flmul@aexp,w
  2567  02A0  00C2               	movwf	??___flmul
  2568  02A1  01C3               	clrf	??___flmul+1
  2569  02A2  0DC3               	rlf	??___flmul+1,f
  2570  02A3  0842               	movf	??___flmul,w
  2571  02A4  3E82               	addlw	130
  2572  02A5  00D2               	movwf	___flmul@temp
  2573  02A6  0843               	movf	??___flmul+1,w
  2574  02A7  1803               	skipnc
  2575  02A8  3E01               	addlw	1
  2576  02A9  3EFF               	addlw	255
  2577  02AA  00D3               	movwf	___flmul@temp+1
  2578  02AB  2AC9               	goto	i1l1818
  2579  02AC                     i1l1808:
  2580  02AC  3001               	movlw	1
  2581  02AD  00C2               	movwf	??___flmul
  2582  02AE                     u259_25:
  2583  02AE  1003               	clrc
  2584  02AF  0DCE               	rlf	___flmul@prod,f
  2585  02B0  0DCF               	rlf	___flmul@prod+1,f
  2586  02B1  0DD0               	rlf	___flmul@prod+2,f
  2587  02B2  0DD1               	rlf	___flmul@prod+3,f
  2588  02B3  0BC2               	decfsz	??___flmul,f
  2589  02B4  2AAE               	goto	u259_25
  2590  02B5                     i1l1810:
  2591  02B5  1FCB               	btfss	___flmul@grs+3,7
  2592  02B6  2AB8               	goto	u260_21
  2593  02B7  2AB9               	goto	u260_20
  2594  02B8                     u260_21:
  2595  02B8  2ABA               	goto	i1l1814
  2596  02B9                     u260_20:
  2597  02B9                     i1l1812:
  2598  02B9  144E               	bsf	___flmul@prod,0
  2599  02BA                     i1l1814:
  2600  02BA  3001               	movlw	1
  2601  02BB  00C2               	movwf	??___flmul
  2602  02BC                     u261_25:
  2603  02BC  1003               	clrc
  2604  02BD  0DC8               	rlf	___flmul@grs,f
  2605  02BE  0DC9               	rlf	___flmul@grs+1,f
  2606  02BF  0DCA               	rlf	___flmul@grs+2,f
  2607  02C0  0DCB               	rlf	___flmul@grs+3,f
  2608  02C1  0BC2               	decfsz	??___flmul,f
  2609  02C2  2ABC               	goto	u261_25
  2610  02C3                     i1l1816:
  2611  02C3  30FF               	movlw	255
  2612  02C4  07D2               	addwf	___flmul@temp,f
  2613  02C5  1803               	skipnc
  2614  02C6  0AD3               	incf	___flmul@temp+1,f
  2615  02C7  30FF               	movlw	255
  2616  02C8  07D3               	addwf	___flmul@temp+1,f
  2617  02C9                     i1l1818:
  2618  02C9  1FD0               	btfss	___flmul@prod+2,7
  2619  02CA  2ACC               	goto	u262_21
  2620  02CB  2ACD               	goto	u262_20
  2621  02CC                     u262_21:
  2622  02CC  2AAC               	goto	i1l1808
  2623  02CD                     u262_20:
  2624  02CD                     i1l1820:
  2625  02CD  01CC               	clrf	___flmul@aexp
  2626  02CE                     i1l1822:
  2627  02CE  1FCB               	btfss	___flmul@grs+3,7
  2628  02CF  2AD1               	goto	u263_21
  2629  02D0  2AD2               	goto	u263_20
  2630  02D1                     u263_21:
  2631  02D1  2AEE               	goto	i1l1830
  2632  02D2                     u263_20:
  2633  02D2                     i1l1824:
  2634  02D2  30FF               	movlw	255
  2635  02D3  0548               	andwf	___flmul@grs,w
  2636  02D4  00C2               	movwf	??___flmul
  2637  02D5  30FF               	movlw	255
  2638  02D6  0549               	andwf	___flmul@grs+1,w
  2639  02D7  00C3               	movwf	??___flmul+1
  2640  02D8  30FF               	movlw	255
  2641  02D9  054A               	andwf	___flmul@grs+2,w
  2642  02DA  00C4               	movwf	??___flmul+2
  2643  02DB  307F               	movlw	127
  2644  02DC  054B               	andwf	___flmul@grs+3,w
  2645  02DD  00C5               	movwf	??___flmul+3
  2646  02DE  0845               	movf	??___flmul+3,w
  2647  02DF  0444               	iorwf	??___flmul+2,w
  2648  02E0  0443               	iorwf	??___flmul+1,w
  2649  02E1  0442               	iorwf	??___flmul,w
  2650  02E2  1903               	skipnz
  2651  02E3  2AE5               	goto	u264_21
  2652  02E4  2AE6               	goto	u264_20
  2653  02E5                     u264_21:
  2654  02E5  2AE9               	goto	i1l561
  2655  02E6                     u264_20:
  2656  02E6                     i1l1826:
  2657  02E6  01CC               	clrf	___flmul@aexp
  2658  02E7  0ACC               	incf	___flmul@aexp,f
  2659  02E8  2AEE               	goto	i1l1830
  2660  02E9                     i1l561:
  2661  02E9  1C4E               	btfss	___flmul@prod,0
  2662  02EA  2AEC               	goto	u265_21
  2663  02EB  2AED               	goto	u265_20
  2664  02EC                     u265_21:
  2665  02EC  2AEE               	goto	i1l1830
  2666  02ED                     u265_20:
  2667  02ED  2AE6               	goto	i1l1826
  2668  02EE                     i1l1830:
  2669  02EE  084C               	movf	___flmul@aexp,w
  2670  02EF  1903               	btfsc	3,2
  2671  02F0  2AF2               	goto	u266_21
  2672  02F1  2AF3               	goto	u266_20
  2673  02F2                     u266_21:
  2674  02F2  2B24               	goto	i1l1840
  2675  02F3                     u266_20:
  2676  02F3                     i1l1832:
  2677  02F3  3001               	movlw	1
  2678  02F4  07CE               	addwf	___flmul@prod,f
  2679  02F5  3000               	movlw	0
  2680  02F6  1803               	skipnc
  2681  02F7  3001               	movlw	1
  2682  02F8  07CF               	addwf	___flmul@prod+1,f
  2683  02F9  3000               	movlw	0
  2684  02FA  1803               	skipnc
  2685  02FB  3001               	movlw	1
  2686  02FC  07D0               	addwf	___flmul@prod+2,f
  2687  02FD  3000               	movlw	0
  2688  02FE  1803               	skipnc
  2689  02FF  3001               	movlw	1
  2690  0300  07D1               	addwf	___flmul@prod+3,f
  2691  0301                     i1l1834:
  2692  0301  1C51               	btfss	___flmul@prod+3,0
  2693  0302  2B04               	goto	u267_21
  2694  0303  2B05               	goto	u267_20
  2695  0304                     u267_21:
  2696  0304  2B24               	goto	i1l1840
  2697  0305                     u267_20:
  2698  0305                     i1l1836:
  2699  0305  084E               	movf	___flmul@prod,w
  2700  0306  00C2               	movwf	??___flmul
  2701  0307  084F               	movf	___flmul@prod+1,w
  2702  0308  00C3               	movwf	??___flmul+1
  2703  0309  0850               	movf	___flmul@prod+2,w
  2704  030A  00C4               	movwf	??___flmul+2
  2705  030B  0851               	movf	___flmul@prod+3,w
  2706  030C  00C5               	movwf	??___flmul+3
  2707  030D  3001               	movlw	1
  2708  030E  00C6               	movwf	??___flmul+4
  2709  030F                     u268_25:
  2710  030F  0D45               	rlf	??___flmul+3,w
  2711  0310  0CC5               	rrf	??___flmul+3,f
  2712  0311  0CC4               	rrf	??___flmul+2,f
  2713  0312  0CC3               	rrf	??___flmul+1,f
  2714  0313  0CC2               	rrf	??___flmul,f
  2715  0314                     u268_20:
  2716  0314  0BC6               	decfsz	??___flmul+4,f
  2717  0315  2B0F               	goto	u268_25
  2718  0316  0845               	movf	??___flmul+3,w
  2719  0317  00D1               	movwf	___flmul@prod+3
  2720  0318  0844               	movf	??___flmul+2,w
  2721  0319  00D0               	movwf	___flmul@prod+2
  2722  031A  0843               	movf	??___flmul+1,w
  2723  031B  00CF               	movwf	___flmul@prod+1
  2724  031C  0842               	movf	??___flmul,w
  2725  031D  00CE               	movwf	___flmul@prod
  2726  031E                     i1l1838:
  2727  031E  3001               	movlw	1
  2728  031F  07D2               	addwf	___flmul@temp,f
  2729  0320  1803               	skipnc
  2730  0321  0AD3               	incf	___flmul@temp+1,f
  2731  0322  3000               	movlw	0
  2732  0323  07D3               	addwf	___flmul@temp+1,f
  2733  0324                     i1l1840:
  2734  0324  0853               	movf	___flmul@temp+1,w
  2735  0325  3A80               	xorlw	128
  2736  0326  00FF               	movwf	btemp+1
  2737  0327  3080               	movlw	128
  2738  0328  027F               	subwf	btemp+1,w
  2739  0329  1D03               	skipz
  2740  032A  2B2D               	goto	u269_25
  2741  032B  30FF               	movlw	255
  2742  032C  0252               	subwf	___flmul@temp,w
  2743  032D                     u269_25:
  2744  032D  1C03               	skipc
  2745  032E  2B30               	goto	u269_21
  2746  032F  2B31               	goto	u269_20
  2747  0330                     u269_21:
  2748  0330  2B3C               	goto	i1l1844
  2749  0331                     u269_20:
  2750  0331                     i1l1842:
  2751  0331  307F               	movlw	127
  2752  0332  1283               	bcf	3,5	;RP0=0, select bank0
  2753  0333  1303               	bcf	3,6	;RP1=0, select bank0
  2754  0334  00D1               	movwf	___flmul@prod+3
  2755  0335  3080               	movlw	128
  2756  0336  00D0               	movwf	___flmul@prod+2
  2757  0337  3000               	movlw	0
  2758  0338  00CF               	movwf	___flmul@prod+1
  2759  0339  3000               	movlw	0
  2760  033A  00CE               	movwf	___flmul@prod
  2761  033B  2B71               	goto	i1l567
  2762  033C                     i1l1844:
  2763  033C  1283               	bcf	3,5	;RP0=0, select bank0
  2764  033D  1303               	bcf	3,6	;RP1=0, select bank0
  2765  033E  0853               	movf	___flmul@temp+1,w
  2766  033F  3A80               	xorlw	128
  2767  0340  00FF               	movwf	btemp+1
  2768  0341  3080               	movlw	128
  2769  0342  027F               	subwf	btemp+1,w
  2770  0343  1D03               	skipz
  2771  0344  2B47               	goto	u270_25
  2772  0345  3001               	movlw	1
  2773  0346  0252               	subwf	___flmul@temp,w
  2774  0347                     u270_25:
  2775  0347  1803               	skipnc
  2776  0348  2B4A               	goto	u270_21
  2777  0349  2B4B               	goto	u270_20
  2778  034A                     u270_21:
  2779  034A  2B57               	goto	i1l1850
  2780  034B                     u270_20:
  2781  034B                     i1l1846:
  2782  034B  3000               	movlw	0
  2783  034C  1283               	bcf	3,5	;RP0=0, select bank0
  2784  034D  1303               	bcf	3,6	;RP1=0, select bank0
  2785  034E  00D1               	movwf	___flmul@prod+3
  2786  034F  3000               	movlw	0
  2787  0350  00D0               	movwf	___flmul@prod+2
  2788  0351  3000               	movlw	0
  2789  0352  00CF               	movwf	___flmul@prod+1
  2790  0353  3000               	movlw	0
  2791  0354  00CE               	movwf	___flmul@prod
  2792  0355                     i1l1848:
  2793  0355  01C7               	clrf	___flmul@sign
  2794  0356  2B71               	goto	i1l567
  2795  0357                     i1l1850:
  2796  0357  1283               	bcf	3,5	;RP0=0, select bank0
  2797  0358  1303               	bcf	3,6	;RP1=0, select bank0
  2798  0359  0852               	movf	___flmul@temp,w
  2799  035A  00C2               	movwf	??___flmul
  2800  035B  0842               	movf	??___flmul,w
  2801  035C  00CD               	movwf	___flmul@bexp
  2802  035D  30FF               	movlw	255
  2803  035E  05CE               	andwf	___flmul@prod,f
  2804  035F  30FF               	movlw	255
  2805  0360  05CF               	andwf	___flmul@prod+1,f
  2806  0361  307F               	movlw	127
  2807  0362  05D0               	andwf	___flmul@prod+2,f
  2808  0363  3000               	movlw	0
  2809  0364  05D1               	andwf	___flmul@prod+3,f
  2810  0365                     i1l1852:
  2811  0365  1C4D               	btfss	___flmul@bexp,0
  2812  0366  2B68               	goto	u271_21
  2813  0367  2B69               	goto	u271_20
  2814  0368                     u271_21:
  2815  0368  2B6A               	goto	i1l1856
  2816  0369                     u271_20:
  2817  0369                     i1l1854:
  2818  0369  17D0               	bsf	___flmul@prod+2,7
  2819  036A                     i1l1856:
  2820  036A  084D               	movf	___flmul@bexp,w
  2821  036B  00C2               	movwf	??___flmul
  2822  036C  1003               	clrc
  2823  036D  0C42               	rrf	??___flmul,w
  2824  036E  00C3               	movwf	??___flmul+1
  2825  036F  0843               	movf	??___flmul+1,w
  2826  0370  00D1               	movwf	___flmul@prod+3
  2827  0371                     i1l567:
  2828  0371  0847               	movf	___flmul@sign,w
  2829  0372  00C2               	movwf	??___flmul
  2830  0373  0842               	movf	??___flmul,w
  2831  0374  04D1               	iorwf	___flmul@prod+3,f
  2832  0375                     i1l1858:
  2833  0375  0851               	movf	___flmul@prod+3,w
  2834  0376  00BD               	movwf	?___flmul+3
  2835  0377  0850               	movf	___flmul@prod+2,w
  2836  0378  00BC               	movwf	?___flmul+2
  2837  0379  084F               	movf	___flmul@prod+1,w
  2838  037A  00BB               	movwf	?___flmul+1
  2839  037B  084E               	movf	___flmul@prod,w
  2840  037C  00BA               	movwf	?___flmul
  2841  037D                     i1l555:
  2842  037D  0008               	return
  2843  037E                     __end_of___flmul:
  2844                           
  2845                           	psect	text7
  2846  0C8D                     __ptext7:	
  2847 ;; *************** function __Umul8_16 *****************
  2848 ;; Defined at:
  2849 ;;		line 4 in file "C:\Program Files\Microchip\xc8\v2.35\pic\sources\c90\common\Umul8_16.c"
  2850 ;; Parameters:    Size  Location     Type
  2851 ;;  multiplier      1    wreg     unsigned char 
  2852 ;;  multiplicand    1    0[COMMON] unsigned char 
  2853 ;; Auto vars:     Size  Location     Type
  2854 ;;  multiplier      1    8[COMMON] unsigned char 
  2855 ;;  word_mpld       2    6[COMMON] unsigned int 
  2856 ;;  product         2    4[COMMON] unsigned int 
  2857 ;; Return value:  Size  Location     Type
  2858 ;;                  2    0[COMMON] unsigned int 
  2859 ;; Registers used:
  2860 ;;		wreg, status,2, status,0
  2861 ;; Tracked objects:
  2862 ;;		On entry : 0/0
  2863 ;;		On exit  : 0/0
  2864 ;;		Unchanged: 0/0
  2865 ;; Data sizes:     COMMON   BANK0   BANK1   BANK3   BANK2
  2866 ;;      Params:         2       0       0       0       0
  2867 ;;      Locals:         5       0       0       0       0
  2868 ;;      Temps:          2       0       0       0       0
  2869 ;;      Totals:         9       0       0       0       0
  2870 ;;Total ram usage:        9 bytes
  2871 ;; Hardware stack levels used: 1
  2872 ;; This function calls:
  2873 ;;		Nothing
  2874 ;; This function is called by:
  2875 ;;		___flmul
  2876 ;; This function uses a non-reentrant model
  2877 ;;
  2878                           
  2879  0C8D                     __Umul8_16:	
  2880                           ;psect for function __Umul8_16
  2881                           
  2882                           
  2883                           ;incstack = 0
  2884                           ; Regs used in __Umul8_16: [wreg+status,2+status,0]
  2885                           ;__Umul8_16@multiplier stored from wreg
  2886  0C8D  00F8               	movwf	__Umul8_16@multiplier
  2887  0C8E                     i1l1336:
  2888  0C8E  01F4               	clrf	__Umul8_16@product
  2889  0C8F  01F5               	clrf	__Umul8_16@product+1
  2890  0C90                     i1l1338:
  2891  0C90  0870               	movf	__Umul8_16@multiplicand,w
  2892  0C91  00F2               	movwf	??__Umul8_16
  2893  0C92  01F3               	clrf	??__Umul8_16+1
  2894  0C93  0872               	movf	??__Umul8_16,w
  2895  0C94  00F6               	movwf	__Umul8_16@word_mpld
  2896  0C95  0873               	movf	??__Umul8_16+1,w
  2897  0C96  00F7               	movwf	__Umul8_16@word_mpld+1
  2898  0C97                     i1l1340:
  2899  0C97  1C78               	btfss	__Umul8_16@multiplier,0
  2900  0C98  2C9A               	goto	u147_21
  2901  0C99  2C9B               	goto	u147_20
  2902  0C9A                     u147_21:
  2903  0C9A  2CA1               	goto	i1l574
  2904  0C9B                     u147_20:
  2905  0C9B                     i1l1342:
  2906  0C9B  0876               	movf	__Umul8_16@word_mpld,w
  2907  0C9C  07F4               	addwf	__Umul8_16@product,f
  2908  0C9D  1803               	skipnc
  2909  0C9E  0AF5               	incf	__Umul8_16@product+1,f
  2910  0C9F  0877               	movf	__Umul8_16@word_mpld+1,w
  2911  0CA0  07F5               	addwf	__Umul8_16@product+1,f
  2912  0CA1                     i1l574:
  2913  0CA1  3001               	movlw	1
  2914  0CA2                     u148_25:
  2915  0CA2  1003               	clrc
  2916  0CA3  0DF6               	rlf	__Umul8_16@word_mpld,f
  2917  0CA4  0DF7               	rlf	__Umul8_16@word_mpld+1,f
  2918  0CA5  3EFF               	addlw	-1
  2919  0CA6  1D03               	skipz
  2920  0CA7  2CA2               	goto	u148_25
  2921  0CA8  1003               	clrc
  2922  0CA9  0CF8               	rrf	__Umul8_16@multiplier,f
  2923  0CAA                     i1l1344:
  2924  0CAA  0878               	movf	__Umul8_16@multiplier,w
  2925  0CAB  1D03               	btfss	3,2
  2926  0CAC  2CAE               	goto	u149_21
  2927  0CAD  2CAF               	goto	u149_20
  2928  0CAE                     u149_21:
  2929  0CAE  2C97               	goto	i1l1340
  2930  0CAF                     u149_20:
  2931  0CAF                     i1l1346:
  2932  0CAF  0875               	movf	__Umul8_16@product+1,w
  2933  0CB0  00F1               	movwf	?__Umul8_16+1
  2934  0CB1  0874               	movf	__Umul8_16@product,w
  2935  0CB2  00F0               	movwf	?__Umul8_16
  2936  0CB3                     i1l576:
  2937  0CB3  0008               	return
  2938  0CB4                     __end_of__Umul8_16:
  2939                           
  2940                           	psect	text8
  2941  0606                     __ptext8:	
  2942 ;; *************** function ___fldiv *****************
  2943 ;; Defined at:
  2944 ;;		line 8 in file "C:\Program Files\Microchip\xc8\v2.35\pic\sources\c90\common\sprcdiv.c"
  2945 ;; Parameters:    Size  Location     Type
  2946 ;;  a               4    0[BANK0 ] unsigned int 
  2947 ;;  b               4    4[BANK0 ] unsigned int 
  2948 ;; Auto vars:     Size  Location     Type
  2949 ;;  grs             4   20[BANK0 ] unsigned long 
  2950 ;;  rem             4   13[BANK0 ] unsigned long 
  2951 ;;  new_exp         2   18[BANK0 ] int 
  2952 ;;  aexp            1   25[BANK0 ] unsigned char 
  2953 ;;  bexp            1   24[BANK0 ] unsigned char 
  2954 ;;  sign            1   17[BANK0 ] unsigned char 
  2955 ;; Return value:  Size  Location     Type
  2956 ;;                  4    0[BANK0 ] unsigned char 
  2957 ;; Registers used:
  2958 ;;		wreg, status,2, status,0, btemp+1
  2959 ;; Tracked objects:
  2960 ;;		On entry : 0/0
  2961 ;;		On exit  : 0/0
  2962 ;;		Unchanged: 0/0
  2963 ;; Data sizes:     COMMON   BANK0   BANK1   BANK3   BANK2
  2964 ;;      Params:         0       8       0       0       0
  2965 ;;      Locals:         0      13       0       0       0
  2966 ;;      Temps:          0       5       0       0       0
  2967 ;;      Totals:         0      26       0       0       0
  2968 ;;Total ram usage:       26 bytes
  2969 ;; Hardware stack levels used: 1
  2970 ;; This function calls:
  2971 ;;		Nothing
  2972 ;; This function is called by:
  2973 ;;		_map
  2974 ;; This function uses a non-reentrant model
  2975 ;;
  2976                           
  2977  0606                     ___fldiv:	
  2978                           ;psect for function ___fldiv
  2979                           
  2980  0606                     i1l1580:	
  2981                           ;incstack = 0
  2982                           ; Regs used in ___fldiv: [wreg+status,2+status,0+btemp+1]
  2983                           
  2984  0606  1283               	bcf	3,5	;RP0=0, select bank0
  2985  0607  1303               	bcf	3,6	;RP1=0, select bank0
  2986  0608  0827               	movf	___fldiv@b+3,w
  2987  0609  3980               	andlw	128
  2988  060A  00A8               	movwf	??___fldiv
  2989  060B  0828               	movf	??___fldiv,w
  2990  060C  00B1               	movwf	___fldiv@sign
  2991  060D                     i1l1582:
  2992  060D  0827               	movf	___fldiv@b+3,w
  2993  060E  00A8               	movwf	??___fldiv
  2994  060F  0728               	addwf	??___fldiv,w
  2995  0610  00A9               	movwf	??___fldiv+1
  2996  0611  0829               	movf	??___fldiv+1,w
  2997  0612  00B8               	movwf	___fldiv@bexp
  2998  0613                     i1l1584:
  2999  0613  1FA6               	btfss	___fldiv@b+2,7
  3000  0614  2E16               	goto	u206_21
  3001  0615  2E17               	goto	u206_20
  3002  0616                     u206_21:
  3003  0616  2E18               	goto	i1l1588
  3004  0617                     u206_20:
  3005  0617                     i1l1586:
  3006  0617  1438               	bsf	___fldiv@bexp,0
  3007  0618                     i1l1588:
  3008  0618  0838               	movf	___fldiv@bexp,w
  3009  0619  1903               	btfsc	3,2
  3010  061A  2E1C               	goto	u207_21
  3011  061B  2E1D               	goto	u207_20
  3012  061C                     u207_21:
  3013  061C  2E2D               	goto	i1l1598
  3014  061D                     u207_20:
  3015  061D                     i1l1590:
  3016  061D  0A38               	incf	___fldiv@bexp,w
  3017  061E  1D03               	btfss	3,2
  3018  061F  2E21               	goto	u208_21
  3019  0620  2E22               	goto	u208_20
  3020  0621                     u208_21:
  3021  0621  2E2A               	goto	i1l1594
  3022  0622                     u208_20:
  3023  0622                     i1l1592:
  3024  0622  3000               	movlw	0
  3025  0623  00A7               	movwf	___fldiv@b+3
  3026  0624  3000               	movlw	0
  3027  0625  00A6               	movwf	___fldiv@b+2
  3028  0626  3000               	movlw	0
  3029  0627  00A5               	movwf	___fldiv@b+1
  3030  0628  3000               	movlw	0
  3031  0629  00A4               	movwf	___fldiv@b
  3032  062A                     i1l1594:
  3033  062A  17A6               	bsf	___fldiv@b+2,7
  3034  062B                     i1l1596:
  3035  062B  01A7               	clrf	___fldiv@b+3
  3036  062C  2E35               	goto	i1l1600
  3037  062D                     i1l1598:
  3038  062D  3000               	movlw	0
  3039  062E  00A7               	movwf	___fldiv@b+3
  3040  062F  3000               	movlw	0
  3041  0630  00A6               	movwf	___fldiv@b+2
  3042  0631  3000               	movlw	0
  3043  0632  00A5               	movwf	___fldiv@b+1
  3044  0633  3000               	movlw	0
  3045  0634  00A4               	movwf	___fldiv@b
  3046  0635                     i1l1600:
  3047  0635  0823               	movf	___fldiv@a+3,w
  3048  0636  3980               	andlw	128
  3049  0637  00A8               	movwf	??___fldiv
  3050  0638  0828               	movf	??___fldiv,w
  3051  0639  06B1               	xorwf	___fldiv@sign,f
  3052  063A                     i1l1602:
  3053  063A  0823               	movf	___fldiv@a+3,w
  3054  063B  00A8               	movwf	??___fldiv
  3055  063C  0728               	addwf	??___fldiv,w
  3056  063D  00A9               	movwf	??___fldiv+1
  3057  063E  0829               	movf	??___fldiv+1,w
  3058  063F  00B9               	movwf	___fldiv@aexp
  3059  0640                     i1l1604:
  3060  0640  1FA2               	btfss	___fldiv@a+2,7
  3061  0641  2E43               	goto	u209_21
  3062  0642  2E44               	goto	u209_20
  3063  0643                     u209_21:
  3064  0643  2E45               	goto	i1l1608
  3065  0644                     u209_20:
  3066  0644                     i1l1606:
  3067  0644  1439               	bsf	___fldiv@aexp,0
  3068  0645                     i1l1608:
  3069  0645  0839               	movf	___fldiv@aexp,w
  3070  0646  1903               	btfsc	3,2
  3071  0647  2E49               	goto	u210_21
  3072  0648  2E4A               	goto	u210_20
  3073  0649                     u210_21:
  3074  0649  2E5A               	goto	i1l1618
  3075  064A                     u210_20:
  3076  064A                     i1l1610:
  3077  064A  0A39               	incf	___fldiv@aexp,w
  3078  064B  1D03               	btfss	3,2
  3079  064C  2E4E               	goto	u211_21
  3080  064D  2E4F               	goto	u211_20
  3081  064E                     u211_21:
  3082  064E  2E57               	goto	i1l1614
  3083  064F                     u211_20:
  3084  064F                     i1l1612:
  3085  064F  3000               	movlw	0
  3086  0650  00A3               	movwf	___fldiv@a+3
  3087  0651  3000               	movlw	0
  3088  0652  00A2               	movwf	___fldiv@a+2
  3089  0653  3000               	movlw	0
  3090  0654  00A1               	movwf	___fldiv@a+1
  3091  0655  3000               	movlw	0
  3092  0656  00A0               	movwf	___fldiv@a
  3093  0657                     i1l1614:
  3094  0657  17A2               	bsf	___fldiv@a+2,7
  3095  0658                     i1l1616:
  3096  0658  01A3               	clrf	___fldiv@a+3
  3097  0659  2E62               	goto	i1l515
  3098  065A                     i1l1618:
  3099  065A  3000               	movlw	0
  3100  065B  00A3               	movwf	___fldiv@a+3
  3101  065C  3000               	movlw	0
  3102  065D  00A2               	movwf	___fldiv@a+2
  3103  065E  3000               	movlw	0
  3104  065F  00A1               	movwf	___fldiv@a+1
  3105  0660  3000               	movlw	0
  3106  0661  00A0               	movwf	___fldiv@a
  3107  0662                     i1l515:
  3108  0662  0823               	movf	___fldiv@a+3,w
  3109  0663  0422               	iorwf	___fldiv@a+2,w
  3110  0664  0421               	iorwf	___fldiv@a+1,w
  3111  0665  0420               	iorwf	___fldiv@a,w
  3112  0666  1D03               	skipz
  3113  0667  2E69               	goto	u212_21
  3114  0668  2E6A               	goto	u212_20
  3115  0669                     u212_21:
  3116  0669  2E83               	goto	i1l1628
  3117  066A                     u212_20:
  3118  066A                     i1l1620:
  3119  066A  3000               	movlw	0
  3120  066B  00A7               	movwf	___fldiv@b+3
  3121  066C  3000               	movlw	0
  3122  066D  00A6               	movwf	___fldiv@b+2
  3123  066E  3000               	movlw	0
  3124  066F  00A5               	movwf	___fldiv@b+1
  3125  0670  3000               	movlw	0
  3126  0671  00A4               	movwf	___fldiv@b
  3127  0672  3080               	movlw	128
  3128  0673  04A6               	iorwf	___fldiv@b+2,f
  3129  0674  307F               	movlw	127
  3130  0675  04A7               	iorwf	___fldiv@b+3,f
  3131  0676                     i1l1622:
  3132  0676  0831               	movf	___fldiv@sign,w
  3133  0677  00A8               	movwf	??___fldiv
  3134  0678  0828               	movf	??___fldiv,w
  3135  0679  04A7               	iorwf	___fldiv@b+3,f
  3136  067A                     i1l1624:
  3137  067A  0827               	movf	___fldiv@b+3,w
  3138  067B  00A3               	movwf	?___fldiv+3
  3139  067C  0826               	movf	___fldiv@b+2,w
  3140  067D  00A2               	movwf	?___fldiv+2
  3141  067E  0825               	movf	___fldiv@b+1,w
  3142  067F  00A1               	movwf	?___fldiv+1
  3143  0680  0824               	movf	___fldiv@b,w
  3144  0681  00A0               	movwf	?___fldiv
  3145  0682  2FE2               	goto	i1l517
  3146  0683                     i1l1628:
  3147  0683  0838               	movf	___fldiv@bexp,w
  3148  0684  1D03               	btfss	3,2
  3149  0685  2E87               	goto	u213_21
  3150  0686  2E88               	goto	u213_20
  3151  0687                     u213_21:
  3152  0687  2E91               	goto	i1l1634
  3153  0688                     u213_20:
  3154  0688                     i1l1630:
  3155  0688  3000               	movlw	0
  3156  0689  00A3               	movwf	?___fldiv+3
  3157  068A  3000               	movlw	0
  3158  068B  00A2               	movwf	?___fldiv+2
  3159  068C  3000               	movlw	0
  3160  068D  00A1               	movwf	?___fldiv+1
  3161  068E  3000               	movlw	0
  3162  068F  00A0               	movwf	?___fldiv
  3163  0690  2FE2               	goto	i1l517
  3164  0691                     i1l1634:
  3165  0691  0838               	movf	___fldiv@bexp,w
  3166  0692  00A8               	movwf	??___fldiv
  3167  0693  01A9               	clrf	??___fldiv+1
  3168  0694  0829               	movf	??___fldiv+1,w
  3169  0695  00AB               	movwf	??___fldiv+3
  3170  0696  0839               	movf	___fldiv@aexp,w
  3171  0697  0228               	subwf	??___fldiv,w
  3172  0698  00AA               	movwf	??___fldiv+2
  3173  0699  1C03               	skipc
  3174  069A  03AB               	decf	??___fldiv+3,f
  3175  069B  082A               	movf	??___fldiv+2,w
  3176  069C  3E7F               	addlw	127
  3177  069D  00B2               	movwf	___fldiv@new_exp
  3178  069E  082B               	movf	??___fldiv+3,w
  3179  069F  1803               	skipnc
  3180  06A0  3E01               	addlw	1
  3181  06A1  3E00               	addlw	0
  3182  06A2  00B3               	movwf	___fldiv@new_exp+1
  3183  06A3                     i1l1636:
  3184  06A3  0827               	movf	___fldiv@b+3,w
  3185  06A4  00B0               	movwf	___fldiv@rem+3
  3186  06A5  0826               	movf	___fldiv@b+2,w
  3187  06A6  00AF               	movwf	___fldiv@rem+2
  3188  06A7  0825               	movf	___fldiv@b+1,w
  3189  06A8  00AE               	movwf	___fldiv@rem+1
  3190  06A9  0824               	movf	___fldiv@b,w
  3191  06AA  00AD               	movwf	___fldiv@rem
  3192  06AB                     i1l1638:
  3193  06AB  3000               	movlw	0
  3194  06AC  00A7               	movwf	___fldiv@b+3
  3195  06AD  3000               	movlw	0
  3196  06AE  00A6               	movwf	___fldiv@b+2
  3197  06AF  3000               	movlw	0
  3198  06B0  00A5               	movwf	___fldiv@b+1
  3199  06B1  3000               	movlw	0
  3200  06B2  00A4               	movwf	___fldiv@b
  3201  06B3                     i1l1640:
  3202  06B3  3000               	movlw	0
  3203  06B4  00B7               	movwf	___fldiv@grs+3
  3204  06B5  3000               	movlw	0
  3205  06B6  00B6               	movwf	___fldiv@grs+2
  3206  06B7  3000               	movlw	0
  3207  06B8  00B5               	movwf	___fldiv@grs+1
  3208  06B9  3000               	movlw	0
  3209  06BA  00B4               	movwf	___fldiv@grs
  3210  06BB                     i1l1642:
  3211  06BB  01B9               	clrf	___fldiv@aexp
  3212  06BC  2F07               	goto	i1l1662
  3213  06BD                     i1l1644:
  3214  06BD  0839               	movf	___fldiv@aexp,w
  3215  06BE  1903               	btfsc	3,2
  3216  06BF  2EC1               	goto	u214_21
  3217  06C0  2EC2               	goto	u214_20
  3218  06C1                     u214_21:
  3219  06C1  2EE2               	goto	i1l1654
  3220  06C2                     u214_20:
  3221  06C2                     i1l1646:
  3222  06C2  3001               	movlw	1
  3223  06C3  00A8               	movwf	??___fldiv
  3224  06C4                     u215_25:
  3225  06C4  1003               	clrc
  3226  06C5  0DAD               	rlf	___fldiv@rem,f
  3227  06C6  0DAE               	rlf	___fldiv@rem+1,f
  3228  06C7  0DAF               	rlf	___fldiv@rem+2,f
  3229  06C8  0DB0               	rlf	___fldiv@rem+3,f
  3230  06C9  0BA8               	decfsz	??___fldiv,f
  3231  06CA  2EC4               	goto	u215_25
  3232  06CB  3001               	movlw	1
  3233  06CC  00A8               	movwf	??___fldiv
  3234  06CD                     u216_25:
  3235  06CD  1003               	clrc
  3236  06CE  0DA4               	rlf	___fldiv@b,f
  3237  06CF  0DA5               	rlf	___fldiv@b+1,f
  3238  06D0  0DA6               	rlf	___fldiv@b+2,f
  3239  06D1  0DA7               	rlf	___fldiv@b+3,f
  3240  06D2  0BA8               	decfsz	??___fldiv,f
  3241  06D3  2ECD               	goto	u216_25
  3242  06D4                     i1l1648:
  3243  06D4  1FB7               	btfss	___fldiv@grs+3,7
  3244  06D5  2ED7               	goto	u217_21
  3245  06D6  2ED8               	goto	u217_20
  3246  06D7                     u217_21:
  3247  06D7  2ED9               	goto	i1l1652
  3248  06D8                     u217_20:
  3249  06D8                     i1l1650:
  3250  06D8  1424               	bsf	___fldiv@b,0
  3251  06D9                     i1l1652:
  3252  06D9  3001               	movlw	1
  3253  06DA  00A8               	movwf	??___fldiv
  3254  06DB                     u218_25:
  3255  06DB  1003               	clrc
  3256  06DC  0DB4               	rlf	___fldiv@grs,f
  3257  06DD  0DB5               	rlf	___fldiv@grs+1,f
  3258  06DE  0DB6               	rlf	___fldiv@grs+2,f
  3259  06DF  0DB7               	rlf	___fldiv@grs+3,f
  3260  06E0  0BA8               	decfsz	??___fldiv,f
  3261  06E1  2EDB               	goto	u218_25
  3262  06E2                     i1l1654:
  3263  06E2  0823               	movf	___fldiv@a+3,w
  3264  06E3  0230               	subwf	___fldiv@rem+3,w
  3265  06E4  1D03               	skipz
  3266  06E5  2EF0               	goto	u219_25
  3267  06E6  0822               	movf	___fldiv@a+2,w
  3268  06E7  022F               	subwf	___fldiv@rem+2,w
  3269  06E8  1D03               	skipz
  3270  06E9  2EF0               	goto	u219_25
  3271  06EA  0821               	movf	___fldiv@a+1,w
  3272  06EB  022E               	subwf	___fldiv@rem+1,w
  3273  06EC  1D03               	skipz
  3274  06ED  2EF0               	goto	u219_25
  3275  06EE  0820               	movf	___fldiv@a,w
  3276  06EF  022D               	subwf	___fldiv@rem,w
  3277  06F0                     u219_25:
  3278  06F0  1C03               	skipc
  3279  06F1  2EF3               	goto	u219_21
  3280  06F2  2EF4               	goto	u219_20
  3281  06F3                     u219_21:
  3282  06F3  2F03               	goto	i1l1660
  3283  06F4                     u219_20:
  3284  06F4                     i1l1656:
  3285  06F4  1737               	bsf	___fldiv@grs+3,6
  3286  06F5                     i1l1658:
  3287  06F5  0820               	movf	___fldiv@a,w
  3288  06F6  02AD               	subwf	___fldiv@rem,f
  3289  06F7  0821               	movf	___fldiv@a+1,w
  3290  06F8  1C03               	skipc
  3291  06F9  0F21               	incfsz	___fldiv@a+1,w
  3292  06FA  02AE               	subwf	___fldiv@rem+1,f
  3293  06FB  0822               	movf	___fldiv@a+2,w
  3294  06FC  1C03               	skipc
  3295  06FD  0F22               	incfsz	___fldiv@a+2,w
  3296  06FE  02AF               	subwf	___fldiv@rem+2,f
  3297  06FF  0823               	movf	___fldiv@a+3,w
  3298  0700  1C03               	skipc
  3299  0701  0F23               	incfsz	___fldiv@a+3,w
  3300  0702  02B0               	subwf	___fldiv@rem+3,f
  3301  0703                     i1l1660:
  3302  0703  3001               	movlw	1
  3303  0704  00A8               	movwf	??___fldiv
  3304  0705  0828               	movf	??___fldiv,w
  3305  0706  07B9               	addwf	___fldiv@aexp,f
  3306  0707                     i1l1662:
  3307  0707  301A               	movlw	26
  3308  0708  0239               	subwf	___fldiv@aexp,w
  3309  0709  1C03               	skipc
  3310  070A  2F0C               	goto	u220_21
  3311  070B  2F0D               	goto	u220_20
  3312  070C                     u220_21:
  3313  070C  2EBD               	goto	i1l1644
  3314  070D                     u220_20:
  3315  070D                     i1l1664:
  3316  070D  0830               	movf	___fldiv@rem+3,w
  3317  070E  042F               	iorwf	___fldiv@rem+2,w
  3318  070F  042E               	iorwf	___fldiv@rem+1,w
  3319  0710  042D               	iorwf	___fldiv@rem,w
  3320  0711  1903               	skipnz
  3321  0712  2F14               	goto	u221_21
  3322  0713  2F15               	goto	u221_20
  3323  0714                     u221_21:
  3324  0714  2F34               	goto	i1l1678
  3325  0715                     u221_20:
  3326  0715                     i1l1666:
  3327  0715  1434               	bsf	___fldiv@grs,0
  3328  0716  2F34               	goto	i1l1678
  3329  0717                     i1l1668:
  3330  0717  3001               	movlw	1
  3331  0718  00A8               	movwf	??___fldiv
  3332  0719                     u222_25:
  3333  0719  1003               	clrc
  3334  071A  0DA4               	rlf	___fldiv@b,f
  3335  071B  0DA5               	rlf	___fldiv@b+1,f
  3336  071C  0DA6               	rlf	___fldiv@b+2,f
  3337  071D  0DA7               	rlf	___fldiv@b+3,f
  3338  071E  0BA8               	decfsz	??___fldiv,f
  3339  071F  2F19               	goto	u222_25
  3340  0720                     i1l1670:
  3341  0720  1FB7               	btfss	___fldiv@grs+3,7
  3342  0721  2F23               	goto	u223_21
  3343  0722  2F24               	goto	u223_20
  3344  0723                     u223_21:
  3345  0723  2F25               	goto	i1l1674
  3346  0724                     u223_20:
  3347  0724                     i1l1672:
  3348  0724  1424               	bsf	___fldiv@b,0
  3349  0725                     i1l1674:
  3350  0725  3001               	movlw	1
  3351  0726  00A8               	movwf	??___fldiv
  3352  0727                     u224_25:
  3353  0727  1003               	clrc
  3354  0728  0DB4               	rlf	___fldiv@grs,f
  3355  0729  0DB5               	rlf	___fldiv@grs+1,f
  3356  072A  0DB6               	rlf	___fldiv@grs+2,f
  3357  072B  0DB7               	rlf	___fldiv@grs+3,f
  3358  072C  0BA8               	decfsz	??___fldiv,f
  3359  072D  2F27               	goto	u224_25
  3360  072E                     i1l1676:
  3361  072E  30FF               	movlw	255
  3362  072F  07B2               	addwf	___fldiv@new_exp,f
  3363  0730  1803               	skipnc
  3364  0731  0AB3               	incf	___fldiv@new_exp+1,f
  3365  0732  30FF               	movlw	255
  3366  0733  07B3               	addwf	___fldiv@new_exp+1,f
  3367  0734                     i1l1678:
  3368  0734  1FA6               	btfss	___fldiv@b+2,7
  3369  0735  2F37               	goto	u225_21
  3370  0736  2F38               	goto	u225_20
  3371  0737                     u225_21:
  3372  0737  2F17               	goto	i1l1668
  3373  0738                     u225_20:
  3374  0738                     i1l1680:
  3375  0738  01B9               	clrf	___fldiv@aexp
  3376  0739                     i1l1682:
  3377  0739  1FB7               	btfss	___fldiv@grs+3,7
  3378  073A  2F3C               	goto	u226_21
  3379  073B  2F3D               	goto	u226_20
  3380  073C                     u226_21:
  3381  073C  2F59               	goto	i1l1690
  3382  073D                     u226_20:
  3383  073D                     i1l1684:
  3384  073D  30FF               	movlw	255
  3385  073E  0534               	andwf	___fldiv@grs,w
  3386  073F  00A8               	movwf	??___fldiv
  3387  0740  30FF               	movlw	255
  3388  0741  0535               	andwf	___fldiv@grs+1,w
  3389  0742  00A9               	movwf	??___fldiv+1
  3390  0743  30FF               	movlw	255
  3391  0744  0536               	andwf	___fldiv@grs+2,w
  3392  0745  00AA               	movwf	??___fldiv+2
  3393  0746  307F               	movlw	127
  3394  0747  0537               	andwf	___fldiv@grs+3,w
  3395  0748  00AB               	movwf	??___fldiv+3
  3396  0749  082B               	movf	??___fldiv+3,w
  3397  074A  042A               	iorwf	??___fldiv+2,w
  3398  074B  0429               	iorwf	??___fldiv+1,w
  3399  074C  0428               	iorwf	??___fldiv,w
  3400  074D  1903               	skipnz
  3401  074E  2F50               	goto	u227_21
  3402  074F  2F51               	goto	u227_20
  3403  0750                     u227_21:
  3404  0750  2F54               	goto	i1l531
  3405  0751                     u227_20:
  3406  0751                     i1l1686:
  3407  0751  01B9               	clrf	___fldiv@aexp
  3408  0752  0AB9               	incf	___fldiv@aexp,f
  3409  0753  2F59               	goto	i1l1690
  3410  0754                     i1l531:
  3411  0754  1C24               	btfss	___fldiv@b,0
  3412  0755  2F57               	goto	u228_21
  3413  0756  2F58               	goto	u228_20
  3414  0757                     u228_21:
  3415  0757  2F59               	goto	i1l1690
  3416  0758                     u228_20:
  3417  0758  2F51               	goto	i1l1686
  3418  0759                     i1l1690:
  3419  0759  0839               	movf	___fldiv@aexp,w
  3420  075A  1903               	btfsc	3,2
  3421  075B  2F5D               	goto	u229_21
  3422  075C  2F5E               	goto	u229_20
  3423  075D                     u229_21:
  3424  075D  2F8F               	goto	i1l1700
  3425  075E                     u229_20:
  3426  075E                     i1l1692:
  3427  075E  3001               	movlw	1
  3428  075F  07A4               	addwf	___fldiv@b,f
  3429  0760  3000               	movlw	0
  3430  0761  1803               	skipnc
  3431  0762  3001               	movlw	1
  3432  0763  07A5               	addwf	___fldiv@b+1,f
  3433  0764  3000               	movlw	0
  3434  0765  1803               	skipnc
  3435  0766  3001               	movlw	1
  3436  0767  07A6               	addwf	___fldiv@b+2,f
  3437  0768  3000               	movlw	0
  3438  0769  1803               	skipnc
  3439  076A  3001               	movlw	1
  3440  076B  07A7               	addwf	___fldiv@b+3,f
  3441  076C                     i1l1694:
  3442  076C  1C27               	btfss	___fldiv@b+3,0
  3443  076D  2F6F               	goto	u230_21
  3444  076E  2F70               	goto	u230_20
  3445  076F                     u230_21:
  3446  076F  2F8F               	goto	i1l1700
  3447  0770                     u230_20:
  3448  0770                     i1l1696:
  3449  0770  0824               	movf	___fldiv@b,w
  3450  0771  00A8               	movwf	??___fldiv
  3451  0772  0825               	movf	___fldiv@b+1,w
  3452  0773  00A9               	movwf	??___fldiv+1
  3453  0774  0826               	movf	___fldiv@b+2,w
  3454  0775  00AA               	movwf	??___fldiv+2
  3455  0776  0827               	movf	___fldiv@b+3,w
  3456  0777  00AB               	movwf	??___fldiv+3
  3457  0778  3001               	movlw	1
  3458  0779  00AC               	movwf	??___fldiv+4
  3459  077A                     u231_25:
  3460  077A  0D2B               	rlf	??___fldiv+3,w
  3461  077B  0CAB               	rrf	??___fldiv+3,f
  3462  077C  0CAA               	rrf	??___fldiv+2,f
  3463  077D  0CA9               	rrf	??___fldiv+1,f
  3464  077E  0CA8               	rrf	??___fldiv,f
  3465  077F                     u231_20:
  3466  077F  0BAC               	decfsz	??___fldiv+4,f
  3467  0780  2F7A               	goto	u231_25
  3468  0781  082B               	movf	??___fldiv+3,w
  3469  0782  00A7               	movwf	___fldiv@b+3
  3470  0783  082A               	movf	??___fldiv+2,w
  3471  0784  00A6               	movwf	___fldiv@b+2
  3472  0785  0829               	movf	??___fldiv+1,w
  3473  0786  00A5               	movwf	___fldiv@b+1
  3474  0787  0828               	movf	??___fldiv,w
  3475  0788  00A4               	movwf	___fldiv@b
  3476  0789                     i1l1698:
  3477  0789  3001               	movlw	1
  3478  078A  07B2               	addwf	___fldiv@new_exp,f
  3479  078B  1803               	skipnc
  3480  078C  0AB3               	incf	___fldiv@new_exp+1,f
  3481  078D  3000               	movlw	0
  3482  078E  07B3               	addwf	___fldiv@new_exp+1,f
  3483  078F                     i1l1700:
  3484  078F  0833               	movf	___fldiv@new_exp+1,w
  3485  0790  3A80               	xorlw	128
  3486  0791  00FF               	movwf	btemp+1
  3487  0792  3080               	movlw	128
  3488  0793  027F               	subwf	btemp+1,w
  3489  0794  1D03               	skipz
  3490  0795  2F98               	goto	u232_25
  3491  0796  30FF               	movlw	255
  3492  0797  0232               	subwf	___fldiv@new_exp,w
  3493  0798                     u232_25:
  3494  0798  1C03               	skipc
  3495  0799  2F9B               	goto	u232_21
  3496  079A  2F9C               	goto	u232_20
  3497  079B                     u232_21:
  3498  079B  2FAA               	goto	i1l1704
  3499  079C                     u232_20:
  3500  079C                     i1l1702:
  3501  079C  30FF               	movlw	255
  3502  079D  1283               	bcf	3,5	;RP0=0, select bank0
  3503  079E  1303               	bcf	3,6	;RP1=0, select bank0
  3504  079F  00B2               	movwf	___fldiv@new_exp
  3505  07A0  3000               	movlw	0
  3506  07A1  00B3               	movwf	___fldiv@new_exp+1
  3507  07A2  3000               	movlw	0
  3508  07A3  00A7               	movwf	___fldiv@b+3
  3509  07A4  3000               	movlw	0
  3510  07A5  00A6               	movwf	___fldiv@b+2
  3511  07A6  3000               	movlw	0
  3512  07A7  00A5               	movwf	___fldiv@b+1
  3513  07A8  3000               	movlw	0
  3514  07A9  00A4               	movwf	___fldiv@b
  3515  07AA                     i1l1704:
  3516  07AA  1283               	bcf	3,5	;RP0=0, select bank0
  3517  07AB  1303               	bcf	3,6	;RP1=0, select bank0
  3518  07AC  0833               	movf	___fldiv@new_exp+1,w
  3519  07AD  3A80               	xorlw	128
  3520  07AE  00FF               	movwf	btemp+1
  3521  07AF  3080               	movlw	128
  3522  07B0  027F               	subwf	btemp+1,w
  3523  07B1  1D03               	skipz
  3524  07B2  2FB5               	goto	u233_25
  3525  07B3  3001               	movlw	1
  3526  07B4  0232               	subwf	___fldiv@new_exp,w
  3527  07B5                     u233_25:
  3528  07B5  1803               	skipnc
  3529  07B6  2FB8               	goto	u233_21
  3530  07B7  2FB9               	goto	u233_20
  3531  07B8                     u233_21:
  3532  07B8  2FC6               	goto	i1l537
  3533  07B9                     u233_20:
  3534  07B9                     i1l1706:
  3535  07B9  1283               	bcf	3,5	;RP0=0, select bank0
  3536  07BA  1303               	bcf	3,6	;RP1=0, select bank0
  3537  07BB  01B2               	clrf	___fldiv@new_exp
  3538  07BC  01B3               	clrf	___fldiv@new_exp+1
  3539  07BD                     i1l1708:
  3540  07BD  3000               	movlw	0
  3541  07BE  00A7               	movwf	___fldiv@b+3
  3542  07BF  3000               	movlw	0
  3543  07C0  00A6               	movwf	___fldiv@b+2
  3544  07C1  3000               	movlw	0
  3545  07C2  00A5               	movwf	___fldiv@b+1
  3546  07C3  3000               	movlw	0
  3547  07C4  00A4               	movwf	___fldiv@b
  3548  07C5                     i1l1710:
  3549  07C5  01B1               	clrf	___fldiv@sign
  3550  07C6                     i1l537:
  3551  07C6  1283               	bcf	3,5	;RP0=0, select bank0
  3552  07C7  1303               	bcf	3,6	;RP1=0, select bank0
  3553  07C8  0832               	movf	___fldiv@new_exp,w
  3554  07C9  00A8               	movwf	??___fldiv
  3555  07CA  0828               	movf	??___fldiv,w
  3556  07CB  00B8               	movwf	___fldiv@bexp
  3557  07CC                     i1l1712:
  3558  07CC  1C38               	btfss	___fldiv@bexp,0
  3559  07CD  2FCF               	goto	u234_21
  3560  07CE  2FD0               	goto	u234_20
  3561  07CF                     u234_21:
  3562  07CF  2FD2               	goto	i1l1716
  3563  07D0                     u234_20:
  3564  07D0                     i1l1714:
  3565  07D0  17A6               	bsf	___fldiv@b+2,7
  3566  07D1  2FD6               	goto	i1l539
  3567  07D2                     i1l1716:
  3568  07D2  307F               	movlw	127
  3569  07D3  00A8               	movwf	??___fldiv
  3570  07D4  0828               	movf	??___fldiv,w
  3571  07D5  05A6               	andwf	___fldiv@b+2,f
  3572  07D6                     i1l539:
  3573  07D6  0838               	movf	___fldiv@bexp,w
  3574  07D7  00A8               	movwf	??___fldiv
  3575  07D8  1003               	clrc
  3576  07D9  0C28               	rrf	??___fldiv,w
  3577  07DA  00A9               	movwf	??___fldiv+1
  3578  07DB  0829               	movf	??___fldiv+1,w
  3579  07DC  00A7               	movwf	___fldiv@b+3
  3580  07DD  0831               	movf	___fldiv@sign,w
  3581  07DE  00A8               	movwf	??___fldiv
  3582  07DF  0828               	movf	??___fldiv,w
  3583  07E0  04A7               	iorwf	___fldiv@b+3,f
  3584  07E1  2E7A               	goto	i1l1624
  3585  07E2                     i1l517:
  3586  07E2  0008               	return
  3587  07E3                     __end_of___fldiv:
  3588                           
  3589                           	psect	text9
  3590  037E                     __ptext9:	
  3591 ;; *************** function ___fladd *****************
  3592 ;; Defined at:
  3593 ;;		line 10 in file "C:\Program Files\Microchip\xc8\v2.35\pic\sources\c90\common\sprcadd.c"
  3594 ;; Parameters:    Size  Location     Type
  3595 ;;  b               4   52[BANK0 ] unsigned char 
  3596 ;;  a               4   56[BANK0 ] unsigned char 
  3597 ;; Auto vars:     Size  Location     Type
  3598 ;;  grs             1   71[BANK0 ] unsigned char 
  3599 ;;  bexp            1   70[BANK0 ] unsigned char 
  3600 ;;  aexp            1   69[BANK0 ] unsigned char 
  3601 ;;  signs           1   68[BANK0 ] unsigned char 
  3602 ;; Return value:  Size  Location     Type
  3603 ;;                  4   52[BANK0 ] unsigned char 
  3604 ;; Registers used:
  3605 ;;		wreg, status,2, status,0, btemp+1
  3606 ;; Tracked objects:
  3607 ;;		On entry : 0/0
  3608 ;;		On exit  : 0/0
  3609 ;;		Unchanged: 0/0
  3610 ;; Data sizes:     COMMON   BANK0   BANK1   BANK3   BANK2
  3611 ;;      Params:         0       8       0       0       0
  3612 ;;      Locals:         0       4       0       0       0
  3613 ;;      Temps:          0       8       0       0       0
  3614 ;;      Totals:         0      20       0       0       0
  3615 ;;Total ram usage:       20 bytes
  3616 ;; Hardware stack levels used: 1
  3617 ;; This function calls:
  3618 ;;		Nothing
  3619 ;; This function is called by:
  3620 ;;		_map
  3621 ;; This function uses a non-reentrant model
  3622 ;;
  3623                           
  3624  037E                     ___fladd:	
  3625                           ;psect for function ___fladd
  3626                           
  3627  037E                     i1l1386:	
  3628                           ;incstack = 0
  3629                           ; Regs used in ___fladd: [wreg+status,2+status,0+btemp+1]
  3630                           
  3631  037E  1283               	bcf	3,5	;RP0=0, select bank0
  3632  037F  1303               	bcf	3,6	;RP1=0, select bank0
  3633  0380  0857               	movf	___fladd@b+3,w
  3634  0381  3980               	andlw	128
  3635  0382  00DC               	movwf	??___fladd
  3636  0383  085C               	movf	??___fladd,w
  3637  0384  00E4               	movwf	___fladd@signs
  3638  0385                     i1l1388:
  3639  0385  0857               	movf	___fladd@b+3,w
  3640  0386  00DC               	movwf	??___fladd
  3641  0387  075C               	addwf	??___fladd,w
  3642  0388  00DD               	movwf	??___fladd+1
  3643  0389  085D               	movf	??___fladd+1,w
  3644  038A  00E6               	movwf	___fladd@bexp
  3645  038B                     i1l1390:
  3646  038B  1FD6               	btfss	___fladd@b+2,7
  3647  038C  2B8E               	goto	u160_21
  3648  038D  2B8F               	goto	u160_20
  3649  038E                     u160_21:
  3650  038E  2B90               	goto	i1l1394
  3651  038F                     u160_20:
  3652  038F                     i1l1392:
  3653  038F  1466               	bsf	___fladd@bexp,0
  3654  0390                     i1l1394:
  3655  0390  0866               	movf	___fladd@bexp,w
  3656  0391  1903               	btfsc	3,2
  3657  0392  2B94               	goto	u161_21
  3658  0393  2B95               	goto	u161_20
  3659  0394                     u161_21:
  3660  0394  2BA5               	goto	i1l1404
  3661  0395                     u161_20:
  3662  0395                     i1l1396:
  3663  0395  0A66               	incf	___fladd@bexp,w
  3664  0396  1D03               	btfss	3,2
  3665  0397  2B99               	goto	u162_21
  3666  0398  2B9A               	goto	u162_20
  3667  0399                     u162_21:
  3668  0399  2BA2               	goto	i1l1400
  3669  039A                     u162_20:
  3670  039A                     i1l1398:
  3671  039A  3000               	movlw	0
  3672  039B  00D7               	movwf	___fladd@b+3
  3673  039C  3000               	movlw	0
  3674  039D  00D6               	movwf	___fladd@b+2
  3675  039E  3000               	movlw	0
  3676  039F  00D5               	movwf	___fladd@b+1
  3677  03A0  3000               	movlw	0
  3678  03A1  00D4               	movwf	___fladd@b
  3679  03A2                     i1l1400:
  3680  03A2  17D6               	bsf	___fladd@b+2,7
  3681  03A3                     i1l1402:
  3682  03A3  01D7               	clrf	___fladd@b+3
  3683  03A4  2BAD               	goto	i1l1406
  3684  03A5                     i1l1404:
  3685  03A5  3000               	movlw	0
  3686  03A6  00D7               	movwf	___fladd@b+3
  3687  03A7  3000               	movlw	0
  3688  03A8  00D6               	movwf	___fladd@b+2
  3689  03A9  3000               	movlw	0
  3690  03AA  00D5               	movwf	___fladd@b+1
  3691  03AB  3000               	movlw	0
  3692  03AC  00D4               	movwf	___fladd@b
  3693  03AD                     i1l1406:
  3694  03AD  085B               	movf	___fladd@a+3,w
  3695  03AE  3980               	andlw	128
  3696  03AF  00DC               	movwf	??___fladd
  3697  03B0  085C               	movf	??___fladd,w
  3698  03B1  00E5               	movwf	___fladd@aexp
  3699  03B2                     i1l1408:
  3700  03B2  0865               	movf	___fladd@aexp,w
  3701  03B3  0664               	xorwf	___fladd@signs,w
  3702  03B4  1903               	skipnz
  3703  03B5  2BB7               	goto	u163_21
  3704  03B6  2BB8               	goto	u163_20
  3705  03B7                     u163_21:
  3706  03B7  2BB9               	goto	i1l1412
  3707  03B8                     u163_20:
  3708  03B8                     i1l1410:
  3709  03B8  1764               	bsf	___fladd@signs,6
  3710  03B9                     i1l1412:
  3711  03B9  085B               	movf	___fladd@a+3,w
  3712  03BA  00DC               	movwf	??___fladd
  3713  03BB  075C               	addwf	??___fladd,w
  3714  03BC  00DD               	movwf	??___fladd+1
  3715  03BD  085D               	movf	??___fladd+1,w
  3716  03BE  00E5               	movwf	___fladd@aexp
  3717  03BF                     i1l1414:
  3718  03BF  1FDA               	btfss	___fladd@a+2,7
  3719  03C0  2BC2               	goto	u164_21
  3720  03C1  2BC3               	goto	u164_20
  3721  03C2                     u164_21:
  3722  03C2  2BC4               	goto	i1l1418
  3723  03C3                     u164_20:
  3724  03C3                     i1l1416:
  3725  03C3  1465               	bsf	___fladd@aexp,0
  3726  03C4                     i1l1418:
  3727  03C4  0865               	movf	___fladd@aexp,w
  3728  03C5  1903               	btfsc	3,2
  3729  03C6  2BC8               	goto	u165_21
  3730  03C7  2BC9               	goto	u165_20
  3731  03C8                     u165_21:
  3732  03C8  2BD9               	goto	i1l1428
  3733  03C9                     u165_20:
  3734  03C9                     i1l1420:
  3735  03C9  0A65               	incf	___fladd@aexp,w
  3736  03CA  1D03               	btfss	3,2
  3737  03CB  2BCD               	goto	u166_21
  3738  03CC  2BCE               	goto	u166_20
  3739  03CD                     u166_21:
  3740  03CD  2BD6               	goto	i1l1424
  3741  03CE                     u166_20:
  3742  03CE                     i1l1422:
  3743  03CE  3000               	movlw	0
  3744  03CF  00DB               	movwf	___fladd@a+3
  3745  03D0  3000               	movlw	0
  3746  03D1  00DA               	movwf	___fladd@a+2
  3747  03D2  3000               	movlw	0
  3748  03D3  00D9               	movwf	___fladd@a+1
  3749  03D4  3000               	movlw	0
  3750  03D5  00D8               	movwf	___fladd@a
  3751  03D6                     i1l1424:
  3752  03D6  17DA               	bsf	___fladd@a+2,7
  3753  03D7                     i1l1426:
  3754  03D7  01DB               	clrf	___fladd@a+3
  3755  03D8  2BE1               	goto	i1l459
  3756  03D9                     i1l1428:
  3757  03D9  3000               	movlw	0
  3758  03DA  00DB               	movwf	___fladd@a+3
  3759  03DB  3000               	movlw	0
  3760  03DC  00DA               	movwf	___fladd@a+2
  3761  03DD  3000               	movlw	0
  3762  03DE  00D9               	movwf	___fladd@a+1
  3763  03DF  3000               	movlw	0
  3764  03E0  00D8               	movwf	___fladd@a
  3765  03E1                     i1l459:
  3766  03E1  0866               	movf	___fladd@bexp,w
  3767  03E2  0265               	subwf	___fladd@aexp,w
  3768  03E3  1803               	skipnc
  3769  03E4  2BE6               	goto	u167_21
  3770  03E5  2BE7               	goto	u167_20
  3771  03E6                     u167_21:
  3772  03E6  2C2B               	goto	i1l1464
  3773  03E7                     u167_20:
  3774  03E7                     i1l1430:
  3775  03E7  1F64               	btfss	___fladd@signs,6
  3776  03E8  2BEA               	goto	u168_21
  3777  03E9  2BEB               	goto	u168_20
  3778  03EA                     u168_21:
  3779  03EA  2BEF               	goto	i1l1434
  3780  03EB                     u168_20:
  3781  03EB                     i1l1432:
  3782  03EB  3080               	movlw	128
  3783  03EC  00DC               	movwf	??___fladd
  3784  03ED  085C               	movf	??___fladd,w
  3785  03EE  06E4               	xorwf	___fladd@signs,f
  3786  03EF                     i1l1434:
  3787  03EF  0866               	movf	___fladd@bexp,w
  3788  03F0  00DC               	movwf	??___fladd
  3789  03F1  085C               	movf	??___fladd,w
  3790  03F2  00E7               	movwf	___fladd@grs
  3791  03F3                     i1l1436:
  3792  03F3  0865               	movf	___fladd@aexp,w
  3793  03F4  00DC               	movwf	??___fladd
  3794  03F5  085C               	movf	??___fladd,w
  3795  03F6  00E6               	movwf	___fladd@bexp
  3796  03F7                     i1l1438:
  3797  03F7  0867               	movf	___fladd@grs,w
  3798  03F8  00DC               	movwf	??___fladd
  3799  03F9  085C               	movf	??___fladd,w
  3800  03FA  00E5               	movwf	___fladd@aexp
  3801  03FB                     i1l1440:
  3802  03FB  0854               	movf	___fladd@b,w
  3803  03FC  00DC               	movwf	??___fladd
  3804  03FD  085C               	movf	??___fladd,w
  3805  03FE  00E7               	movwf	___fladd@grs
  3806  03FF                     i1l1442:
  3807  03FF  0858               	movf	___fladd@a,w
  3808  0400  00DC               	movwf	??___fladd
  3809  0401  085C               	movf	??___fladd,w
  3810  0402  00D4               	movwf	___fladd@b
  3811  0403                     i1l1444:
  3812  0403  0867               	movf	___fladd@grs,w
  3813  0404  00DC               	movwf	??___fladd
  3814  0405  085C               	movf	??___fladd,w
  3815  0406  00D8               	movwf	___fladd@a
  3816  0407                     i1l1446:
  3817  0407  0855               	movf	___fladd@b+1,w
  3818  0408  00DC               	movwf	??___fladd
  3819  0409  085C               	movf	??___fladd,w
  3820  040A  00E7               	movwf	___fladd@grs
  3821  040B                     i1l1448:
  3822  040B  0859               	movf	___fladd@a+1,w
  3823  040C  00DC               	movwf	??___fladd
  3824  040D  085C               	movf	??___fladd,w
  3825  040E  00D5               	movwf	___fladd@b+1
  3826  040F                     i1l1450:
  3827  040F  0867               	movf	___fladd@grs,w
  3828  0410  00DC               	movwf	??___fladd
  3829  0411  085C               	movf	??___fladd,w
  3830  0412  00D9               	movwf	___fladd@a+1
  3831  0413                     i1l1452:
  3832  0413  0856               	movf	___fladd@b+2,w
  3833  0414  00DC               	movwf	??___fladd
  3834  0415  085C               	movf	??___fladd,w
  3835  0416  00E7               	movwf	___fladd@grs
  3836  0417                     i1l1454:
  3837  0417  085A               	movf	___fladd@a+2,w
  3838  0418  00DC               	movwf	??___fladd
  3839  0419  085C               	movf	??___fladd,w
  3840  041A  00D6               	movwf	___fladd@b+2
  3841  041B                     i1l1456:
  3842  041B  0867               	movf	___fladd@grs,w
  3843  041C  00DC               	movwf	??___fladd
  3844  041D  085C               	movf	??___fladd,w
  3845  041E  00DA               	movwf	___fladd@a+2
  3846  041F                     i1l1458:
  3847  041F  0857               	movf	___fladd@b+3,w
  3848  0420  00DC               	movwf	??___fladd
  3849  0421  085C               	movf	??___fladd,w
  3850  0422  00E7               	movwf	___fladd@grs
  3851  0423                     i1l1460:
  3852  0423  085B               	movf	___fladd@a+3,w
  3853  0424  00DC               	movwf	??___fladd
  3854  0425  085C               	movf	??___fladd,w
  3855  0426  00D7               	movwf	___fladd@b+3
  3856  0427                     i1l1462:
  3857  0427  0867               	movf	___fladd@grs,w
  3858  0428  00DC               	movwf	??___fladd
  3859  0429  085C               	movf	??___fladd,w
  3860  042A  00DB               	movwf	___fladd@a+3
  3861  042B                     i1l1464:
  3862  042B  01E7               	clrf	___fladd@grs
  3863  042C                     i1l1466:
  3864  042C  0865               	movf	___fladd@aexp,w
  3865  042D  00DC               	movwf	??___fladd
  3866  042E  01DD               	clrf	??___fladd+1
  3867  042F  085D               	movf	??___fladd+1,w
  3868  0430  00DF               	movwf	??___fladd+3
  3869  0431  0866               	movf	___fladd@bexp,w
  3870  0432  025C               	subwf	??___fladd,w
  3871  0433  00DE               	movwf	??___fladd+2
  3872  0434  1C03               	skipc
  3873  0435  03DF               	decf	??___fladd+3,f
  3874  0436  085F               	movf	??___fladd+3,w
  3875  0437  3A80               	xorlw	128
  3876  0438  00FF               	movwf	btemp+1
  3877  0439  3080               	movlw	128
  3878  043A  027F               	subwf	btemp+1,w
  3879  043B  1D03               	skipz
  3880  043C  2C3F               	goto	u169_25
  3881  043D  301A               	movlw	26
  3882  043E  025E               	subwf	??___fladd+2,w
  3883  043F                     u169_25:
  3884  043F  1C03               	skipc
  3885  0440  2C42               	goto	u169_21
  3886  0441  2C43               	goto	u169_20
  3887  0442                     u169_21:
  3888  0442  2C80               	goto	i1l1482
  3889  0443                     u169_20:
  3890  0443                     i1l1468:
  3891  0443  1283               	bcf	3,5	;RP0=0, select bank0
  3892  0444  1303               	bcf	3,6	;RP1=0, select bank0
  3893  0445  0857               	movf	___fladd@b+3,w
  3894  0446  0456               	iorwf	___fladd@b+2,w
  3895  0447  0455               	iorwf	___fladd@b+1,w
  3896  0448  0454               	iorwf	___fladd@b,w
  3897  0449  1D03               	skipz
  3898  044A  2C4C               	goto	u170_21
  3899  044B  2C4E               	goto	u170_20
  3900  044C                     u170_21:
  3901  044C  3001               	movlw	1
  3902  044D  2C4F               	goto	u171_20
  3903  044E                     u170_20:
  3904  044E  3000               	movlw	0
  3905  044F                     u171_20:
  3906  044F  00DC               	movwf	??___fladd
  3907  0450  085C               	movf	??___fladd,w
  3908  0451  00E7               	movwf	___fladd@grs
  3909  0452  3000               	movlw	0
  3910  0453  00D7               	movwf	___fladd@b+3
  3911  0454  3000               	movlw	0
  3912  0455  00D6               	movwf	___fladd@b+2
  3913  0456  3000               	movlw	0
  3914  0457  00D5               	movwf	___fladd@b+1
  3915  0458  3000               	movlw	0
  3916  0459  00D4               	movwf	___fladd@b
  3917  045A  0865               	movf	___fladd@aexp,w
  3918  045B  00DC               	movwf	??___fladd
  3919  045C  085C               	movf	??___fladd,w
  3920  045D  00E6               	movwf	___fladd@bexp
  3921  045E  2C88               	goto	i1l463
  3922  045F                     i1l465:
  3923  045F  1C67               	btfss	___fladd@grs,0
  3924  0460  2C62               	goto	u172_21
  3925  0461  2C63               	goto	u172_20
  3926  0462                     u172_21:
  3927  0462  2C6C               	goto	i1l1472
  3928  0463                     u172_20:
  3929  0463                     i1l1470:
  3930  0463  0867               	movf	___fladd@grs,w
  3931  0464  00DC               	movwf	??___fladd
  3932  0465  1003               	clrc
  3933  0466  0C5C               	rrf	??___fladd,w
  3934  0467  3801               	iorlw	1
  3935  0468  00DD               	movwf	??___fladd+1
  3936  0469  085D               	movf	??___fladd+1,w
  3937  046A  00E7               	movwf	___fladd@grs
  3938  046B  2C6E               	goto	i1l1474
  3939  046C                     i1l1472:
  3940  046C  1003               	clrc
  3941  046D  0CE7               	rrf	___fladd@grs,f
  3942  046E                     i1l1474:
  3943  046E  1C54               	btfss	___fladd@b,0
  3944  046F  2C71               	goto	u173_21
  3945  0470  2C72               	goto	u173_20
  3946  0471                     u173_21:
  3947  0471  2C73               	goto	i1l1478
  3948  0472                     u173_20:
  3949  0472                     i1l1476:
  3950  0472  17E7               	bsf	___fladd@grs,7
  3951  0473                     i1l1478:
  3952  0473  3001               	movlw	1
  3953  0474  00DC               	movwf	??___fladd
  3954  0475                     u174_25:
  3955  0475  0D57               	rlf	___fladd@b+3,w
  3956  0476  0CD7               	rrf	___fladd@b+3,f
  3957  0477  0CD6               	rrf	___fladd@b+2,f
  3958  0478  0CD5               	rrf	___fladd@b+1,f
  3959  0479  0CD4               	rrf	___fladd@b,f
  3960  047A  0BDC               	decfsz	??___fladd& (0+127),f
  3961  047B  2C75               	goto	u174_25
  3962  047C                     i1l1480:
  3963  047C  3001               	movlw	1
  3964  047D  00DC               	movwf	??___fladd
  3965  047E  085C               	movf	??___fladd,w
  3966  047F  07E6               	addwf	___fladd@bexp,f
  3967  0480                     i1l1482:
  3968  0480  1283               	bcf	3,5	;RP0=0, select bank0
  3969  0481  1303               	bcf	3,6	;RP1=0, select bank0
  3970  0482  0865               	movf	___fladd@aexp,w
  3971  0483  0266               	subwf	___fladd@bexp,w
  3972  0484  1C03               	skipc
  3973  0485  2C87               	goto	u175_21
  3974  0486  2C88               	goto	u175_20
  3975  0487                     u175_21:
  3976  0487  2C5F               	goto	i1l465
  3977  0488                     u175_20:
  3978  0488                     i1l463:
  3979  0488  1B64               	btfsc	___fladd@signs,6
  3980  0489  2C8B               	goto	u176_21
  3981  048A  2C8C               	goto	u176_20
  3982  048B                     u176_21:
  3983  048B  2CD7               	goto	i1l1508
  3984  048C                     u176_20:
  3985  048C                     i1l1484:
  3986  048C  0866               	movf	___fladd@bexp,w
  3987  048D  1D03               	btfss	3,2
  3988  048E  2C90               	goto	u177_21
  3989  048F  2C91               	goto	u177_20
  3990  0490                     u177_21:
  3991  0490  2C9A               	goto	i1l1490
  3992  0491                     u177_20:
  3993  0491                     i1l1486:
  3994  0491  3000               	movlw	0
  3995  0492  00D7               	movwf	?___fladd+3
  3996  0493  3000               	movlw	0
  3997  0494  00D6               	movwf	?___fladd+2
  3998  0495  3000               	movlw	0
  3999  0496  00D5               	movwf	?___fladd+1
  4000  0497  3000               	movlw	0
  4001  0498  00D4               	movwf	?___fladd
  4002  0499  2E05               	goto	i1l472
  4003  049A                     i1l1490:
  4004  049A  0858               	movf	___fladd@a,w
  4005  049B  07D4               	addwf	___fladd@b,f
  4006  049C  0859               	movf	___fladd@a+1,w
  4007  049D  1103               	clrz
  4008  049E  1803               	skipnc
  4009  049F  3E01               	addlw	1
  4010  04A0  1903               	skipnz
  4011  04A1  2CA3               	goto	u178_21
  4012  04A2  07D5               	addwf	___fladd@b+1,f
  4013  04A3                     u178_21:
  4014  04A3  085A               	movf	___fladd@a+2,w
  4015  04A4  1103               	clrz
  4016  04A5  1803               	skipnc
  4017  04A6  3E01               	addlw	1
  4018  04A7  1903               	skipnz
  4019  04A8  2CAA               	goto	u178_22
  4020  04A9  07D6               	addwf	___fladd@b+2,f
  4021  04AA                     u178_22:
  4022  04AA  085B               	movf	___fladd@a+3,w
  4023  04AB  1103               	clrz
  4024  04AC  1803               	skipnc
  4025  04AD  3E01               	addlw	1
  4026  04AE  1903               	skipnz
  4027  04AF  2CB1               	goto	u178_23
  4028  04B0  07D7               	addwf	___fladd@b+3,f
  4029  04B1                     u178_23:
  4030  04B1                     i1l1492:
  4031  04B1  1C57               	btfss	___fladd@b+3,0
  4032  04B2  2CB4               	goto	u179_21
  4033  04B3  2CB5               	goto	u179_20
  4034  04B4                     u179_21:
  4035  04B4  2D8B               	goto	i1l1542
  4036  04B5                     u179_20:
  4037  04B5                     i1l1494:
  4038  04B5  1C67               	btfss	___fladd@grs,0
  4039  04B6  2CB8               	goto	u180_21
  4040  04B7  2CB9               	goto	u180_20
  4041  04B8                     u180_21:
  4042  04B8  2CC2               	goto	i1l1498
  4043  04B9                     u180_20:
  4044  04B9                     i1l1496:
  4045  04B9  0867               	movf	___fladd@grs,w
  4046  04BA  00DC               	movwf	??___fladd
  4047  04BB  1003               	clrc
  4048  04BC  0C5C               	rrf	??___fladd,w
  4049  04BD  3801               	iorlw	1
  4050  04BE  00DD               	movwf	??___fladd+1
  4051  04BF  085D               	movf	??___fladd+1,w
  4052  04C0  00E7               	movwf	___fladd@grs
  4053  04C1  2CC4               	goto	i1l1500
  4054  04C2                     i1l1498:
  4055  04C2  1003               	clrc
  4056  04C3  0CE7               	rrf	___fladd@grs,f
  4057  04C4                     i1l1500:
  4058  04C4  1C54               	btfss	___fladd@b,0
  4059  04C5  2CC7               	goto	u181_21
  4060  04C6  2CC8               	goto	u181_20
  4061  04C7                     u181_21:
  4062  04C7  2CC9               	goto	i1l1504
  4063  04C8                     u181_20:
  4064  04C8                     i1l1502:
  4065  04C8  17E7               	bsf	___fladd@grs,7
  4066  04C9                     i1l1504:
  4067  04C9  3001               	movlw	1
  4068  04CA  00DC               	movwf	??___fladd
  4069  04CB                     u182_25:
  4070  04CB  0D57               	rlf	___fladd@b+3,w
  4071  04CC  0CD7               	rrf	___fladd@b+3,f
  4072  04CD  0CD6               	rrf	___fladd@b+2,f
  4073  04CE  0CD5               	rrf	___fladd@b+1,f
  4074  04CF  0CD4               	rrf	___fladd@b,f
  4075  04D0  0BDC               	decfsz	??___fladd& (0+127),f
  4076  04D1  2CCB               	goto	u182_25
  4077  04D2                     i1l1506:
  4078  04D2  3001               	movlw	1
  4079  04D3  00DC               	movwf	??___fladd
  4080  04D4  085C               	movf	??___fladd,w
  4081  04D5  07E6               	addwf	___fladd@bexp,f
  4082  04D6  2D8B               	goto	i1l1542
  4083  04D7                     i1l1508:
  4084  04D7  0857               	movf	___fladd@b+3,w
  4085  04D8  3A80               	xorlw	128
  4086  04D9  00FF               	movwf	btemp+1
  4087  04DA  085B               	movf	___fladd@a+3,w
  4088  04DB  3A80               	xorlw	128
  4089  04DC  027F               	subwf	btemp+1,w
  4090  04DD  1D03               	skipz
  4091  04DE  2CE9               	goto	u183_23
  4092  04DF  085A               	movf	___fladd@a+2,w
  4093  04E0  0256               	subwf	___fladd@b+2,w
  4094  04E1  1D03               	skipz
  4095  04E2  2CE9               	goto	u183_23
  4096  04E3  0859               	movf	___fladd@a+1,w
  4097  04E4  0255               	subwf	___fladd@b+1,w
  4098  04E5  1D03               	skipz
  4099  04E6  2CE9               	goto	u183_23
  4100  04E7  0858               	movf	___fladd@a,w
  4101  04E8  0254               	subwf	___fladd@b,w
  4102  04E9                     u183_23:
  4103  04E9  1803               	skipnc
  4104  04EA  2CEC               	goto	u183_21
  4105  04EB  2CED               	goto	u183_20
  4106  04EC                     u183_21:
  4107  04EC  2D45               	goto	i1l1518
  4108  04ED                     u183_20:
  4109  04ED                     i1l1510:
  4110  04ED  30FF               	movlw	255
  4111  04EE  00DC               	movwf	??___fladd
  4112  04EF  30FF               	movlw	255
  4113  04F0  00DD               	movwf	??___fladd+1
  4114  04F1  30FF               	movlw	255
  4115  04F2  00DE               	movwf	??___fladd+2
  4116  04F3  30FF               	movlw	255
  4117  04F4  00DF               	movwf	??___fladd+3
  4118  04F5  0858               	movf	___fladd@a,w
  4119  04F6  00E0               	movwf	??___fladd+4
  4120  04F7  0859               	movf	___fladd@a+1,w
  4121  04F8  00E1               	movwf	??___fladd+5
  4122  04F9  085A               	movf	___fladd@a+2,w
  4123  04FA  00E2               	movwf	??___fladd+6
  4124  04FB  085B               	movf	___fladd@a+3,w
  4125  04FC  00E3               	movwf	??___fladd+7
  4126  04FD  0854               	movf	___fladd@b,w
  4127  04FE  02E0               	subwf	??___fladd+4,f
  4128  04FF  0855               	movf	___fladd@b+1,w
  4129  0500  1C03               	skipc
  4130  0501  0F55               	incfsz	___fladd@b+1,w
  4131  0502  2D04               	goto	u184_21
  4132  0503  2D05               	goto	u184_22
  4133  0504                     u184_21:
  4134  0504  02E1               	subwf	??___fladd+5,f
  4135  0505                     u184_22:
  4136  0505  0856               	movf	___fladd@b+2,w
  4137  0506  1C03               	skipc
  4138  0507  0F56               	incfsz	___fladd@b+2,w
  4139  0508  2D0A               	goto	u184_23
  4140  0509  2D0B               	goto	u184_24
  4141  050A                     u184_23:
  4142  050A  02E2               	subwf	??___fladd+6,f
  4143  050B                     u184_24:
  4144  050B  0857               	movf	___fladd@b+3,w
  4145  050C  1C03               	skipc
  4146  050D  0F57               	incfsz	___fladd@b+3,w
  4147  050E  2D10               	goto	u184_25
  4148  050F  2D11               	goto	u184_26
  4149  0510                     u184_25:
  4150  0510  02E3               	subwf	??___fladd+7,f
  4151  0511                     u184_26:
  4152  0511  0860               	movf	??___fladd+4,w
  4153  0512  07DC               	addwf	??___fladd,f
  4154  0513  0861               	movf	??___fladd+5,w
  4155  0514  1803               	skipnc
  4156  0515  0F61               	incfsz	??___fladd+5,w
  4157  0516  2D18               	goto	u185_20
  4158  0517  2D19               	goto	u185_21
  4159  0518                     u185_20:
  4160  0518  07DD               	addwf	??___fladd+1,f
  4161  0519                     u185_21:
  4162  0519  0862               	movf	??___fladd+6,w
  4163  051A  1803               	skipnc
  4164  051B  0F62               	incfsz	??___fladd+6,w
  4165  051C  2D1E               	goto	u185_22
  4166  051D  2D1F               	goto	u185_23
  4167  051E                     u185_22:
  4168  051E  07DE               	addwf	??___fladd+2,f
  4169  051F                     u185_23:
  4170  051F  0863               	movf	??___fladd+7,w
  4171  0520  1803               	skipnc
  4172  0521  0A63               	incf	??___fladd+7,w
  4173  0522  07DF               	addwf	??___fladd+3,f
  4174  0523  085F               	movf	??___fladd+3,w
  4175  0524  00D7               	movwf	___fladd@b+3
  4176  0525  085E               	movf	??___fladd+2,w
  4177  0526  00D6               	movwf	___fladd@b+2
  4178  0527  085D               	movf	??___fladd+1,w
  4179  0528  00D5               	movwf	___fladd@b+1
  4180  0529  085C               	movf	??___fladd,w
  4181  052A  00D4               	movwf	___fladd@b
  4182  052B                     i1l1512:
  4183  052B  3080               	movlw	128
  4184  052C  00DC               	movwf	??___fladd
  4185  052D  085C               	movf	??___fladd,w
  4186  052E  06E4               	xorwf	___fladd@signs,f
  4187  052F  09E7               	comf	___fladd@grs,f
  4188  0530  0AE7               	incf	___fladd@grs,f
  4189  0531                     i1l1514:
  4190  0531  0867               	movf	___fladd@grs,w
  4191  0532  1D03               	btfss	3,2
  4192  0533  2D35               	goto	u186_21
  4193  0534  2D36               	goto	u186_20
  4194  0535                     u186_21:
  4195  0535  2D53               	goto	i1l480
  4196  0536                     u186_20:
  4197  0536                     i1l1516:
  4198  0536  3001               	movlw	1
  4199  0537  07D4               	addwf	___fladd@b,f
  4200  0538  3000               	movlw	0
  4201  0539  1803               	skipnc
  4202  053A  3001               	movlw	1
  4203  053B  07D5               	addwf	___fladd@b+1,f
  4204  053C  3000               	movlw	0
  4205  053D  1803               	skipnc
  4206  053E  3001               	movlw	1
  4207  053F  07D6               	addwf	___fladd@b+2,f
  4208  0540  3000               	movlw	0
  4209  0541  1803               	skipnc
  4210  0542  3001               	movlw	1
  4211  0543  07D7               	addwf	___fladd@b+3,f
  4212  0544  2D53               	goto	i1l480
  4213  0545                     i1l1518:
  4214  0545  0858               	movf	___fladd@a,w
  4215  0546  02D4               	subwf	___fladd@b,f
  4216  0547  0859               	movf	___fladd@a+1,w
  4217  0548  1C03               	skipc
  4218  0549  0F59               	incfsz	___fladd@a+1,w
  4219  054A  02D5               	subwf	___fladd@b+1,f
  4220  054B  085A               	movf	___fladd@a+2,w
  4221  054C  1C03               	skipc
  4222  054D  0F5A               	incfsz	___fladd@a+2,w
  4223  054E  02D6               	subwf	___fladd@b+2,f
  4224  054F  085B               	movf	___fladd@a+3,w
  4225  0550  1C03               	skipc
  4226  0551  0F5B               	incfsz	___fladd@a+3,w
  4227  0552  02D7               	subwf	___fladd@b+3,f
  4228  0553                     i1l480:
  4229  0553  0857               	movf	___fladd@b+3,w
  4230  0554  0456               	iorwf	___fladd@b+2,w
  4231  0555  0455               	iorwf	___fladd@b+1,w
  4232  0556  0454               	iorwf	___fladd@b,w
  4233  0557  1D03               	skipz
  4234  0558  2D5A               	goto	u187_21
  4235  0559  2D5B               	goto	u187_20
  4236  055A                     u187_21:
  4237  055A  2D87               	goto	i1l1540
  4238  055B                     u187_20:
  4239  055B                     i1l1520:
  4240  055B  0867               	movf	___fladd@grs,w
  4241  055C  1D03               	btfss	3,2
  4242  055D  2D5F               	goto	u188_21
  4243  055E  2D60               	goto	u188_20
  4244  055F                     u188_21:
  4245  055F  2D87               	goto	i1l1540
  4246  0560                     u188_20:
  4247  0560                     i1l1522:
  4248  0560  3000               	movlw	0
  4249  0561  00D7               	movwf	?___fladd+3
  4250  0562  3000               	movlw	0
  4251  0563  00D6               	movwf	?___fladd+2
  4252  0564  3000               	movlw	0
  4253  0565  00D5               	movwf	?___fladd+1
  4254  0566  3000               	movlw	0
  4255  0567  00D4               	movwf	?___fladd
  4256  0568  2E05               	goto	i1l472
  4257  0569                     i1l1526:
  4258  0569  3001               	movlw	1
  4259  056A  00DC               	movwf	??___fladd
  4260  056B                     u189_25:
  4261  056B  1003               	clrc
  4262  056C  0DD4               	rlf	___fladd@b,f
  4263  056D  0DD5               	rlf	___fladd@b+1,f
  4264  056E  0DD6               	rlf	___fladd@b+2,f
  4265  056F  0DD7               	rlf	___fladd@b+3,f
  4266  0570  0BDC               	decfsz	??___fladd,f
  4267  0571  2D6B               	goto	u189_25
  4268  0572                     i1l1528:
  4269  0572  1FE7               	btfss	___fladd@grs,7
  4270  0573  2D75               	goto	u190_21
  4271  0574  2D76               	goto	u190_20
  4272  0575                     u190_21:
  4273  0575  2D77               	goto	i1l484
  4274  0576                     u190_20:
  4275  0576                     i1l1530:
  4276  0576  1454               	bsf	___fladd@b,0
  4277  0577                     i1l484:
  4278  0577  1C67               	btfss	___fladd@grs,0
  4279  0578  2D7A               	goto	u191_21
  4280  0579  2D7B               	goto	u191_20
  4281  057A                     u191_21:
  4282  057A  2D7E               	goto	i1l1534
  4283  057B                     u191_20:
  4284  057B                     i1l1532:
  4285  057B  1403               	setc
  4286  057C  0DE7               	rlf	___fladd@grs,f
  4287  057D  2D80               	goto	i1l1536
  4288  057E                     i1l1534:
  4289  057E  1003               	clrc
  4290  057F  0DE7               	rlf	___fladd@grs,f
  4291  0580                     i1l1536:
  4292  0580  0866               	movf	___fladd@bexp,w
  4293  0581  1903               	btfsc	3,2
  4294  0582  2D84               	goto	u192_21
  4295  0583  2D85               	goto	u192_20
  4296  0584                     u192_21:
  4297  0584  2D87               	goto	i1l1540
  4298  0585                     u192_20:
  4299  0585                     i1l1538:
  4300  0585  3001               	movlw	1
  4301  0586  02E6               	subwf	___fladd@bexp,f
  4302  0587                     i1l1540:
  4303  0587  1FD6               	btfss	___fladd@b+2,7
  4304  0588  2D8A               	goto	u193_21
  4305  0589  2D8B               	goto	u193_20
  4306  058A                     u193_21:
  4307  058A  2D69               	goto	i1l1526
  4308  058B                     u193_20:
  4309  058B                     i1l1542:
  4310  058B  01E5               	clrf	___fladd@aexp
  4311  058C                     i1l1544:
  4312  058C  1FE7               	btfss	___fladd@grs,7
  4313  058D  2D8F               	goto	u194_21
  4314  058E  2D90               	goto	u194_20
  4315  058F                     u194_21:
  4316  058F  2D9E               	goto	i1l1552
  4317  0590                     u194_20:
  4318  0590                     i1l1546:
  4319  0590  0867               	movf	___fladd@grs,w
  4320  0591  397F               	andlw	127
  4321  0592  1903               	btfsc	3,2
  4322  0593  2D95               	goto	u195_21
  4323  0594  2D96               	goto	u195_20
  4324  0595                     u195_21:
  4325  0595  2D99               	goto	i1l490
  4326  0596                     u195_20:
  4327  0596                     i1l1548:
  4328  0596  01E5               	clrf	___fladd@aexp
  4329  0597  0AE5               	incf	___fladd@aexp,f
  4330  0598  2D9E               	goto	i1l1552
  4331  0599                     i1l490:
  4332  0599  1C54               	btfss	___fladd@b,0
  4333  059A  2D9C               	goto	u196_21
  4334  059B  2D9D               	goto	u196_20
  4335  059C                     u196_21:
  4336  059C  2D9E               	goto	i1l1552
  4337  059D                     u196_20:
  4338  059D  2D96               	goto	i1l1548
  4339  059E                     i1l1552:
  4340  059E  0865               	movf	___fladd@aexp,w
  4341  059F  1903               	btfsc	3,2
  4342  05A0  2DA2               	goto	u197_21
  4343  05A1  2DA3               	goto	u197_20
  4344  05A2                     u197_21:
  4345  05A2  2DD7               	goto	i1l493
  4346  05A3                     u197_20:
  4347  05A3                     i1l1554:
  4348  05A3  3001               	movlw	1
  4349  05A4  07D4               	addwf	___fladd@b,f
  4350  05A5  3000               	movlw	0
  4351  05A6  1803               	skipnc
  4352  05A7  3001               	movlw	1
  4353  05A8  07D5               	addwf	___fladd@b+1,f
  4354  05A9  3000               	movlw	0
  4355  05AA  1803               	skipnc
  4356  05AB  3001               	movlw	1
  4357  05AC  07D6               	addwf	___fladd@b+2,f
  4358  05AD  3000               	movlw	0
  4359  05AE  1803               	skipnc
  4360  05AF  3001               	movlw	1
  4361  05B0  07D7               	addwf	___fladd@b+3,f
  4362  05B1                     i1l1556:
  4363  05B1  1C57               	btfss	___fladd@b+3,0
  4364  05B2  2DB4               	goto	u198_21
  4365  05B3  2DB5               	goto	u198_20
  4366  05B4                     u198_21:
  4367  05B4  2DD7               	goto	i1l493
  4368  05B5                     u198_20:
  4369  05B5                     i1l1558:
  4370  05B5  0854               	movf	___fladd@b,w
  4371  05B6  00DC               	movwf	??___fladd
  4372  05B7  0855               	movf	___fladd@b+1,w
  4373  05B8  00DD               	movwf	??___fladd+1
  4374  05B9  0856               	movf	___fladd@b+2,w
  4375  05BA  00DE               	movwf	??___fladd+2
  4376  05BB  0857               	movf	___fladd@b+3,w
  4377  05BC  00DF               	movwf	??___fladd+3
  4378  05BD  3001               	movlw	1
  4379  05BE  00E0               	movwf	??___fladd+4
  4380  05BF                     u199_25:
  4381  05BF  0D5F               	rlf	??___fladd+3,w
  4382  05C0  0CDF               	rrf	??___fladd+3,f
  4383  05C1  0CDE               	rrf	??___fladd+2,f
  4384  05C2  0CDD               	rrf	??___fladd+1,f
  4385  05C3  0CDC               	rrf	??___fladd,f
  4386  05C4                     u199_20:
  4387  05C4  0BE0               	decfsz	??___fladd+4,f
  4388  05C5  2DBF               	goto	u199_25
  4389  05C6  085F               	movf	??___fladd+3,w
  4390  05C7  00D7               	movwf	___fladd@b+3
  4391  05C8  085E               	movf	??___fladd+2,w
  4392  05C9  00D6               	movwf	___fladd@b+2
  4393  05CA  085D               	movf	??___fladd+1,w
  4394  05CB  00D5               	movwf	___fladd@b+1
  4395  05CC  085C               	movf	??___fladd,w
  4396  05CD  00D4               	movwf	___fladd@b
  4397  05CE  0A66               	incf	___fladd@bexp,w
  4398  05CF  1903               	btfsc	3,2
  4399  05D0  2DD2               	goto	u200_21
  4400  05D1  2DD3               	goto	u200_20
  4401  05D2                     u200_21:
  4402  05D2  2DD7               	goto	i1l493
  4403  05D3                     u200_20:
  4404  05D3                     i1l1560:
  4405  05D3  3001               	movlw	1
  4406  05D4  00DC               	movwf	??___fladd
  4407  05D5  085C               	movf	??___fladd,w
  4408  05D6  07E6               	addwf	___fladd@bexp,f
  4409  05D7                     i1l493:
  4410  05D7  0A66               	incf	___fladd@bexp,w
  4411  05D8  1903               	btfsc	3,2
  4412  05D9  2DDB               	goto	u201_21
  4413  05DA  2DDC               	goto	u201_20
  4414  05DB                     u201_21:
  4415  05DB  2DE1               	goto	i1l1564
  4416  05DC                     u201_20:
  4417  05DC                     i1l1562:
  4418  05DC  0866               	movf	___fladd@bexp,w
  4419  05DD  1D03               	btfss	3,2
  4420  05DE  2DE0               	goto	u202_21
  4421  05DF  2DE1               	goto	u202_20
  4422  05E0                     u202_21:
  4423  05E0  2DEF               	goto	i1l1570
  4424  05E1                     u202_20:
  4425  05E1                     i1l1564:
  4426  05E1  3000               	movlw	0
  4427  05E2  00D7               	movwf	___fladd@b+3
  4428  05E3  3000               	movlw	0
  4429  05E4  00D6               	movwf	___fladd@b+2
  4430  05E5  3000               	movlw	0
  4431  05E6  00D5               	movwf	___fladd@b+1
  4432  05E7  3000               	movlw	0
  4433  05E8  00D4               	movwf	___fladd@b
  4434  05E9                     i1l1566:
  4435  05E9  0866               	movf	___fladd@bexp,w
  4436  05EA  1D03               	btfss	3,2
  4437  05EB  2DED               	goto	u203_21
  4438  05EC  2DEE               	goto	u203_20
  4439  05ED                     u203_21:
  4440  05ED  2DEF               	goto	i1l1570
  4441  05EE                     u203_20:
  4442  05EE                     i1l1568:
  4443  05EE  01E4               	clrf	___fladd@signs
  4444  05EF                     i1l1570:
  4445  05EF  1C66               	btfss	___fladd@bexp,0
  4446  05F0  2DF2               	goto	u204_21
  4447  05F1  2DF3               	goto	u204_20
  4448  05F2                     u204_21:
  4449  05F2  2DF5               	goto	i1l1574
  4450  05F3                     u204_20:
  4451  05F3                     i1l1572:
  4452  05F3  17D6               	bsf	___fladd@b+2,7
  4453  05F4  2DF9               	goto	i1l501
  4454  05F5                     i1l1574:
  4455  05F5  307F               	movlw	127
  4456  05F6  00DC               	movwf	??___fladd
  4457  05F7  085C               	movf	??___fladd,w
  4458  05F8  05D6               	andwf	___fladd@b+2,f
  4459  05F9                     i1l501:
  4460  05F9  0866               	movf	___fladd@bexp,w
  4461  05FA  00DC               	movwf	??___fladd
  4462  05FB  1003               	clrc
  4463  05FC  0C5C               	rrf	??___fladd,w
  4464  05FD  00DD               	movwf	??___fladd+1
  4465  05FE  085D               	movf	??___fladd+1,w
  4466  05FF  00D7               	movwf	___fladd@b+3
  4467  0600                     i1l1576:
  4468  0600  1FE4               	btfss	___fladd@signs,7
  4469  0601  2E03               	goto	u205_21
  4470  0602  2E04               	goto	u205_20
  4471  0603                     u205_21:
  4472  0603  2E05               	goto	i1l502
  4473  0604                     u205_20:
  4474  0604                     i1l1578:
  4475  0604  17D7               	bsf	___fladd@b+3,7
  4476  0605                     i1l502:
  4477  0605                     i1l472:
  4478  0605  0008               	return
  4479  0606                     __end_of___fladd:
  4480  007E                     btemp	set	126	;btemp
  4481  007E                     wtemp0	set	126
  4482                           
  4483                           	psect	idloc
  4484                           
  4485                           ;Config register IDLOC0 @ 0x2000
  4486                           ;	unspecified, using default values
  4487  2000                     	org	8192
  4488  2000  3FFF               	dw	16383
  4489                           
  4490                           ;Config register IDLOC1 @ 0x2001
  4491                           ;	unspecified, using default values
  4492  2001                     	org	8193
  4493  2001  3FFF               	dw	16383
  4494                           
  4495                           ;Config register IDLOC2 @ 0x2002
  4496                           ;	unspecified, using default values
  4497  2002                     	org	8194
  4498  2002  3FFF               	dw	16383
  4499                           
  4500                           ;Config register IDLOC3 @ 0x2003
  4501                           ;	unspecified, using default values
  4502  2003                     	org	8195
  4503  2003  3FFF               	dw	16383
  4504                           
  4505                           	psect	config
  4506                           
  4507                           ;Config register CONFIG1 @ 0x2007
  4508                           ;	Oscillator Selection bits
  4509                           ;	FOSC = INTRC_NOCLKOUT, INTOSCIO oscillator: I/O function on RA6/OSC2/CLKOUT pin, I/O f
      +                          unction on RA7/OSC1/CLKIN
  4510                           ;	Watchdog Timer Enable bit
  4511                           ;	WDTE = OFF, WDT disabled and can be enabled by SWDTEN bit of the WDTCON register
  4512                           ;	Power-up Timer Enable bit
  4513                           ;	PWRTE = OFF, PWRT disabled
  4514                           ;	RE3/MCLR pin function select bit
  4515                           ;	MCLRE = OFF, RE3/MCLR pin function is digital input, MCLR internally tied to VDD
  4516                           ;	Code Protection bit
  4517                           ;	CP = OFF, Program memory code protection is disabled
  4518                           ;	Data Code Protection bit
  4519                           ;	CPD = OFF, Data memory code protection is disabled
  4520                           ;	Brown Out Reset Selection bits
  4521                           ;	BOREN = OFF, BOR disabled
  4522                           ;	Internal External Switchover bit
  4523                           ;	IESO = OFF, Internal/External Switchover mode is disabled
  4524                           ;	Fail-Safe Clock Monitor Enabled bit
  4525                           ;	FCMEN = OFF, Fail-Safe Clock Monitor is disabled
  4526                           ;	Low Voltage Programming Enable bit
  4527                           ;	LVP = OFF, RB3 pin has digital I/O, HV on MCLR must be used for programming
  4528                           ;	In-Circuit Debugger Mode bit
  4529                           ;	DEBUG = 0x1, unprogrammed default
  4530  2007                     	org	8199
  4531  2007  20D4               	dw	8404
  4532                           
  4533                           ;Config register CONFIG2 @ 0x2008
  4534                           ;	Brown-out Reset Selection bit
  4535                           ;	BOR4V = BOR40V, Brown-out Reset set to 4.0V
  4536                           ;	Flash Program Memory Self Write Enable bits
  4537                           ;	WRT = OFF, Write protection off
  4538  2008                     	org	8200
  4539  2008  3FFF               	dw	16383

Data Sizes:
    Strings     0
    Constant    0
    Data        0
    BSS         4
    Persistent  0
    Stack       0

Auto Spaces:
    Space          Size  Autos    Used
    COMMON           14     14      14
    BANK0            80     79      79
    BANK1            80     17      21
    BANK3            96      0       0
    BANK2            96      0       0

Pointer List with Targets:

    None.

Critical Paths under _main in COMMON

    None.

Critical Paths under _isr in COMMON

    _map->___xxtofl
    ___fltol->___xxtofl
    ___flmul->___xxtofl
    ___fldiv->___xxtofl
    ___fladd->___xxtofl

Critical Paths under _main in BANK0

    None.

Critical Paths under _isr in BANK0

    _isr->_map
    _map->___fltol
    ___fltol->___fladd
    ___flmul->___fldiv
    ___fladd->___flmul

Critical Paths under _main in BANK1

    None.

Critical Paths under _isr in BANK1

    _isr->_map
    _map->___fltol

Critical Paths under _main in BANK3

    None.

Critical Paths under _isr in BANK3

    None.

Critical Paths under _main in BANK2

    None.

Critical Paths under _isr in BANK2

    None.

Call Graph Tables:

 ---------------------------------------------------------------------------------
 (Depth) Function   	        Calls       Base Space   Used Autos Params    Refs
 ---------------------------------------------------------------------------------
 (0) _main                                                 1     1      0       0
                                             16 BANK1      1     1      0
                              _setup
 ---------------------------------------------------------------------------------
 (1) _setup                                                0     0      0       0
 ---------------------------------------------------------------------------------
 Estimated maximum stack depth 1
 ---------------------------------------------------------------------------------
 (Depth) Function   	        Calls       Base Space   Used Autos Params    Refs
 ---------------------------------------------------------------------------------
 (2) _isr                                                  5     5      0    7645
                                             11 BANK1      5     5      0
                                _map
 ---------------------------------------------------------------------------------
 (3) _map                                                  7     1      6    7645
                                             78 BANK0      1     1      0
                                              5 BANK1      6     0      6
                            ___fladd
                            ___fldiv
                            ___flmul
                            ___fltol
                           ___xxtofl
 ---------------------------------------------------------------------------------
 (4) ___xxtofl                                            14    10      4     626
                                              0 COMMON    14    10      4
 ---------------------------------------------------------------------------------
 (4) ___fltol                                             11     7      4     305
                                             72 BANK0      6     2      4
                                              0 BANK1      5     5      0
                            ___fladd (ARG)
                            ___fldiv (ARG)
                            ___flmul (ARG)
                           ___xxtofl (ARG)
 ---------------------------------------------------------------------------------
 (4) ___flmul                                             26    18      8    2417
                                             26 BANK0     26    18      8
                          __Umul8_16
                            ___fldiv (ARG)
                           ___xxtofl (ARG)
 ---------------------------------------------------------------------------------
 (5) __Umul8_16                                            9     7      2     799
                                              0 COMMON     9     7      2
 ---------------------------------------------------------------------------------
 (4) ___fldiv                                             26    18      8    1273
                                              0 BANK0     26    18      8
                           ___xxtofl (ARG)
 ---------------------------------------------------------------------------------
 (4) ___fladd                                             20    12      8    2262
                                             52 BANK0     20    12      8
                            ___fldiv (ARG)
                            ___flmul (ARG)
                           ___xxtofl (ARG)
 ---------------------------------------------------------------------------------
 Estimated maximum stack depth 5
 ---------------------------------------------------------------------------------

 Call Graph Graphs:

 _main (ROOT)
   _setup

 _isr (ROOT)
   _map
     ___fladd
       ___fldiv (ARG)
         ___xxtofl (ARG)
       ___flmul (ARG)
         __Umul8_16
         ___fldiv (ARG)
         ___xxtofl (ARG)
       ___xxtofl (ARG)
     ___fldiv
     ___flmul
     ___fltol
       ___fladd (ARG)
       ___fldiv (ARG)
       ___flmul (ARG)
       ___xxtofl (ARG)
     ___xxtofl

 Address spaces:
Name               Size   Autos  Total    Cost      Usage
BITCOMMON            E      0       0       0        0.0%
EEDATA             100      0       0       0        0.0%
NULL                 0      0       0       0        0.0%
CODE                 0      0       0       0        0.0%
COMMON               E      E       E       1      100.0%
BITSFR0              0      0       0       1        0.0%
SFR0                 0      0       0       1        0.0%
BITSFR1              0      0       0       2        0.0%
SFR1                 0      0       0       2        0.0%
STACK                0      0       0       2        0.0%
ABS                  0      0      72       3        0.0%
BITBANK0            50      0       0       4        0.0%
BITSFR3              0      0       0       4        0.0%
SFR3                 0      0       0       4        0.0%
BANK0               50     4F      4F       5       98.8%
BITSFR2              0      0       0       5        0.0%
SFR2                 0      0       0       5        0.0%
BITBANK1            50      0       0       6        0.0%
BANK1               50     11      15       7       26.2%
BITBANK3            60      0       0       8        0.0%
BANK3               60      0       0       9        0.0%
BITBANK2            60      0       0      10        0.0%
BANK2               60      0       0      11        0.0%
DATA                 0      0      72      12        0.0%


Microchip Technology PIC Macro Assembler V2.35 build 20211206165544 
Symbol Table                                                                                   Wed Apr 27 18:18:36 2022

           ___fldiv@aexp 0039             ___fldiv@bexp 0038             ___fldiv@sign 0031  
                     l74 0D36                       l76 0D3A                       l77 0D45  
    __Umul8_16@word_mpld 0076                      _PR2 0092                      _map 0DE2  
                    _isr 0E94             ___flmul@aexp 004C             ___flmul@bexp 004D  
           ___flmul@sign 0047             ___flmul@temp 0052             ___flmul@prod 004E  
           ___fltol@exp1 006D                     l1910 0CEC                     l1920 0CFA  
                   l1912 0CF0                     l1930 0D0D                     l1922 0CFF  
                   l1914 0CF1                     l1940 0D18                     l1932 0D10  
                   l1924 0D02                     l1916 0CF7                     l1950 0D2E  
                   l1942 0D1C                     l1934 0D13                     l1926 0D07  
                   l1918 0CF8                     l1952 0D30                     l1944 0D20  
                   l1936 0D14                     l1928 0D0A                     l1954 0D31  
                   l1946 0D24                     l1938 0D17                     l1956 0D32  
                   l1948 0D2A                     l1958 0D35                     l1990 0CCA  
                   ?_map 00A5                     l1992 0CD1                     l1984 0CB4  
                   l1994 0CDE                     l1986 0CB9                     l1996 0CE2  
                   l1988 0CBF                     l1998 0CE5                     ?_isr 0070  
                   _CCPR 00B3                     u2900 0CBF                     u2901 0CBE  
                   u2910 0CCA                     u2911 0CC9                     u2920 0CDE  
                   u2921 0CDD                     u2860 0D3A                     u2861 0D39  
                   i1l80 0E93                     i1l59 0F3B                     _main 0CB4  
                   map@x 006E                     btemp 007E                     start 0010  
        ___fldiv@new_exp 0032                    ??_map 007E                    ??_isr 00AB  
          ___fltol@sign1 006C          __end_of___fladd 0606                    ?_main 0070  
        __end_of___fldiv 07E3          __end_of___flmul 037E          __end_of___fltol 0DE2  
                  _ANSEL 0188                    i1l501 05F9                    i1l502 0605  
                  i1l352 0DE1                    i1l601 0FFF                    i1l362 0DE1  
                  i1l531 0754                    i1l515 0662                    i1l612 0FC9  
                  i1l517 07E2                    i1l613 0FD5                    i1l605 0FAD  
                  i1l463 0488                    i1l359 0DCC                    i1l480 0553  
                  i1l472 0605                    i1l465 045F                    i1l537 07C6  
                  i1l561 02E9                    i1l490 0599                    i1l459 03E1  
                  i1l539 07D6                    i1l555 037D                    i1l484 0577  
                  i1l493 05D7                    i1l574 0CA1                    i1l567 0371  
                  i1l576 0CB3                    i1l599 0F68                    _PORTA 0005  
                  _TRISA 0085                    map@x0 00A5                    map@x1 00A6  
                  map@y0 00A7                    map@y1 00A9                    _setup 0CEC  
                  pclath 000A                    status 0003                    wtemp0 007E  
        __initialization 0013             __end_of_main 0CEC                   ??_main 00B0  
                 _ADRESH 001E                   _CCPR1L 0015                   _CCPR2L 001B  
                 _CCPR_2 00B1                   ?_setup 0070                   _ANSELH 0189  
                 i1l1400 03A2                   i1l1410 03B8                   i1l1402 03A3  
                 i1l1500 04C4                   i1l1420 03C9                   i1l1412 03B9  
                 i1l1404 03A5                   i1l1340 0C97                   i1l1510 04ED  
                 i1l1502 04C8                   i1l1430 03E7                   i1l1422 03CE  
                 i1l1414 03BF                   i1l1406 03AD                   i1l1342 0C9B  
                 i1l1350 0D46                   u200_20 05D3                   i1l1520 055B  
                 i1l1512 052B                   i1l1504 04C9                   i1l1440 03FB  
                 i1l1432 03EB                   i1l1424 03D6                   i1l1416 03C3  
                 i1l1408 03B2                   i1l1600 0635                   i1l1344 0CAA  
                 i1l1336 0C8E                   i1l1360 0D86                   i1l1352 0D57  
                 u200_21 05D2                   i1l1530 0576                   i1l1522 0560  
                 i1l1514 0531                   i1l1506 04D2                   i1l1450 040F  
                 i1l1442 03FF                   i1l1434 03EF                   i1l1426 03D7  
                 i1l1418 03C4                   i1l1610 064A                   i1l1602 063A  
                 i1l1346 0CAF                   i1l1338 0C90                   i1l1362 0D8E  
                 i1l1532 057B                   i1l1540 0587                   i1l1516 0536  
                 i1l1508 04D7                   i1l1460 0423                   i1l1452 0413  
                 i1l1444 0403                   i1l1436 03F3                   i1l1428 03D9  
                 i1l1700 078F                   i1l1620 066A                   i1l1612 064F  
                 i1l1604 0640                   i1l1380 0DB9                   i1l1372 0D9C  
                 i1l1364 0D90                   i1l1356 0D60                   i1l1534 057E  
                 i1l1526 0569                   i1l1518 0545                   i1l1542 058B  
                 i1l1470 0463                   i1l1462 0427                   i1l1454 0417  
                 i1l1446 0407                   i1l1438 03F7                   i1l1390 038B  
                 i1l1710 07C5                   i1l1702 079C                   i1l1630 0688  
                 i1l1622 0676                   i1l1614 0657                   i1l1606 0644  
                 i1l1382 0DD1                   i1l1366 0D94                   i1l1374 0DB2  
                 i1l1358 0D85                   u201_20 05DC                   i1l1560 05D3  
                 i1l1552 059E                   i1l1544 058C                   i1l1536 0580  
                 i1l1528 0572                   i1l1480 047C                   i1l1472 046C  
                 i1l1456 041B                   i1l1448 040B                   i1l1464 042B  
                 i1l1392 038F                   i1l1712 07CC                   i1l1704 07AA  
                 i1l1640 06B3                   i1l1624 067A                   i1l1616 0658  
                 i1l1608 0645                   i1l1800 0247                   i1l1384 0DD6  
                 u201_21 05DB                   i1l1570 05EF                   i1l1562 05DC  
                 i1l1554 05A3                   i1l1546 0590                   i1l1538 0585  
                 i1l1490 049A                   i1l1474 046E                   i1l1482 0480  
                 i1l1466 042C                   i1l1458 041F                   i1l1394 0390  
                 i1l1386 037E                   i1l1714 07D0                   i1l1706 07B9  
                 i1l1650 06D8                   i1l1642 06BB                   i1l1634 0691  
                 i1l1618 065A                   i1l1810 02B5                   i1l1802 026D  
                 i1l1730 002F                   i1l1722 001D                   i1l1572 05F3  
                 i1l1564 05E1                   i1l1556 05B1                   i1l1548 0596  
                 i1l1492 04B1                   i1l1484 048C                   i1l1476 0472  
                 i1l1468 0443                   i1l1396 0395                   i1l1388 0385  
                 i1l1716 07D2                   i1l1708 07BD                   i1l1660 0703  
                 i1l1652 06D9                   i1l1644 06BD                   i1l1636 06A3  
                 i1l1628 0683                   i1l1580 0606                   i1l1820 02CD  
                 i1l1812 02B9                   i1l1804 0295                   i1l1740 004B  
                 i1l1732 0034                   i1l1724 0024                   i1l1900 0FF6  
                 i1l1574 05F5                   i1l1566 05E9                   i1l1558 05B5  
                 i1l1494 04B5                   i1l1486 0491                   i1l1478 0473  
                 i1l1398 039A                   i1l1670 0720                   i1l1646 06C2  
                 i1l1654 06E2                   i1l1662 0707                   i1l1638 06AB  
                 i1l1590 061D                   i1l1582 060D                   i1l1830 02EE  
                 i1l1822 02CE                   i1l1814 02BA                   i1l1806 029E  
                 i1l1750 0060                   i1l1742 0050                   i1l1734 0039  
                 i1l1726 002A                   i1l1902 0FF7                   i1l1576 0600  
                 i1l1568 05EE                   u202_20 05E1                   i1l1496 04B9  
                 i1l1680 0738                   i1l1672 0724                   i1l1664 070D  
                 i1l1656 06F4                   i1l1648 06D4                   u210_20 064A  
                 i1l1592 0622                   i1l1584 0613                   i1l1832 02F3  
                 i1l1840 0324                   i1l1824 02D2                   i1l1816 02C3  
                 i1l1808 02AC                   i1l1760 007C                   i1l1752 0065  
                 i1l1744 0056                   i1l1736 0041                   i1l1728 002E  
                 u202_21 05E0                   u210_21 0649                   i1l1578 0604  
                 i1l1498 04C2                   i1l1690 0759                   i1l1682 0739  
                 i1l1674 0725                   i1l1666 0715                   i1l1658 06F5  
                 i1l1594 062A                   i1l1586 0617                   i1l1850 0357  
                 i1l1842 0331                   i1l1834 0301                   i1l1826 02E6  
                 i1l1818 02C9                   i1l1770 00A7                   i1l1762 0081  
                 i1l1754 006D                   i1l1746 005A                   i1l1738 0043  
                 i1l1906 0DE5                   i1l1692 075E                   i1l1684 073D  
                 i1l1676 072E                   i1l1668 0717                   i1l1596 062B  
                 i1l1588 0618                   i1l1852 0365                   i1l1844 033C  
                 i1l1836 0305                   i1l1780 0144                   i1l1772 00C4  
                 i1l1756 006F                   i1l1748 005B                   i1l1694 076C  
                 i1l1686 0751                   i1l1678 0734                   i1l1598 062D  
                 i1l1854 0369                   i1l1846 034B                   i1l1838 031E  
                 i1l1790 01A7                   i1l1782 014D                   i1l1774 00E0  
                 i1l1766 008A                   i1l1758 0077                   i1l1870 0F70  
                 i1l1862 0F47                   u203_20 05EE                   i1l1696 0770  
                 u211_20 064F                   i1l1856 036A                   i1l1848 0355  
                 i1l1792 01C0                   i1l1784 015D                   i1l1776 010C  
                 i1l1768 009A                   i1l1880 0F92                   i1l1864 0F4C  
                 i1l1960 0E94                   u203_21 05ED                   u211_21 064E  
                 i1l1698 0789                   i1l1858 0375                   i1l1794 01DD  
                 i1l1786 017A                   i1l1778 0128                   i1l1890 0FC3  
                 i1l1882 0F96                   i1l1874 0F79                   i1l1866 0F50  
                 i1l1970 0EE0                   i1l1962 0E9A                   i1l1796 020A  
                 i1l1788 018A                   i1l1892 0FCD                   i1l1884 0FA4  
                 i1l1876 0F7E                   i1l1868 0F60                   i1l1972 0EED  
                 i1l1980 0F39                   i1l1964 0EA5                   i1l1798 021A  
                 i1l1894 0FD7                   i1l1886 0FB4                   i1l1878 0F8B  
                 i1l1974 0F08                   i1l1966 0EC0                   u204_20 05F3  
                 u220_20 070D                   u212_20 066A                   i1l1896 0FED  
                 i1l1888 0FBF                   i1l1976 0F16                   i1l1968 0ECE  
                 u204_21 05F2                   u220_21 070C                   u212_21 0669  
                 i1l1898 0FF2                   i1l1978 0F27                   u205_20 0604  
                 u221_20 0715                   u213_20 0688                   u205_21 0603  
                 u221_21 0714                   u213_21 0687                   u230_20 0770  
                 u214_20 06C2                   u206_20 0617                   u150_20 0D57  
                 u230_21 076F                   u214_21 06C1                   u206_21 0616  
                 u150_21 0D56                   u222_25 0719                   u231_20 077F  
                 u223_20 0724                   u207_20 061D                   u151_20 0D7C  
                 u223_21 0723                   u207_21 061C                   u231_25 077A  
                 u215_25 06C4                   u151_25 0D77                   u160_20 038F  
                 u232_20 079C                   u208_20 0622                   u240_20 0065  
                 u152_20 0D94                   u160_21 038E                   u232_21 079B  
                 u208_21 0621                   u240_21 0064                   u152_21 0D93  
                 u232_25 0798                   u224_25 0727                   u216_25 06CD  
                 u161_20 0395                   u233_20 07B9                   u225_20 0738  
                 u217_20 06D8                   u209_20 0644                   u241_20 007C  
                 u153_20 0D9B                   u161_21 0394                   u233_21 07B8  
                 u225_21 0737                   u217_21 06D7                   u209_21 0643  
                 u241_21 007B                   u153_21 0D9A                   u233_25 07B5  
                 u170_20 044E                   u162_20 039A                   u234_20 07D0  
                 u226_20 073D                   u242_20 0081                   u170_21 044C  
                 u162_21 0399                   u234_21 07CF                   u226_21 073C  
                 u242_21 0080                   u218_25 06DB                   u250_25 01A9  
                 u154_25 0D9D                   u171_20 044F                   u163_20 03B8  
                 u227_20 0751                   u219_20 06F4                   u147_20 0C9B  
                 u235_20 002E                   u155_20 0DB1                   u163_21 03B7  
                 u227_21 0750                   u219_21 06F3                   u147_21 0C9A  
                 u251_21 01CF                   u243_21 00D2                   u235_21 002D  
                 u155_21 0DB0                   u251_22 01D6                   u243_22 00D9  
                 u251_23 01DD                   u243_23 00E0                   u219_25 06F0  
                 u180_20 04B9                   u172_20 0463                   u164_20 03C3  
                 u228_20 0758                   u260_20 02B9                   u236_20 0034  
                 u156_20 0DB8                   u180_21 04B8                   u172_21 0462  
                 u164_21 03C2                   u228_21 0757                   u260_21 02B8  
                 u252_21 01FC                   u244_21 00EE                   u236_21 0033  
                 u156_21 0DB7                   u252_22 0203                   u244_22 00F5  
                 u252_23 020A                   u244_23 00FC                   u148_25 0CA2  
                 u181_20 04C8                   u173_20 0472                   u165_20 03C9  
                 u229_20 075E                   u149_20 0CAF                   u237_20 0039  
                 u181_21 04C7                   u173_21 0471                   u165_21 03C8  
                 u229_21 075D                   u149_21 0CAE                   u253_21 0229  
                 u245_21 011A                   u237_21 0038                   u253_22 0230  
                 u245_22 0121                   u253_23 0237                   u245_23 0128  
                 u261_25 02BC                   u157_25 0DBD                   u190_20 0576  
                 u166_20 03CE                   u270_20 034B                   u262_20 02CD  
                 u254_20 0253                   u238_20 005A                   u158_20 0DD1  
                 u190_21 0575                   u166_21 03CD                   u270_21 034A  
                 u262_21 02CC                   u246_21 0136                   u238_21 0059  
                 u158_21 0DD0                   u246_22 013D                   u246_23 0144  
                 u182_25 04CB                   u174_25 0475                   u270_25 0347  
                 u254_25 024E                   u191_20 057B                   u183_20 04ED  
                 u175_20 0488                   u167_20 03E7                   u271_20 0369  
                 u263_20 02D2                   u239_20 0060                   u159_20 0DD6  
                 u191_21 057A                   u183_21 04EC                   u175_21 0487  
                 u167_21 03E6                   u271_21 0368                   u263_21 02D1  
                 u255_21 025F                   u239_21 005F                   u159_21 0DD5  
                 u255_22 0266                   u183_23 04E9                   u255_23 026D  
                 u247_25 0146                   u192_20 0585                   u176_20 048C  
                 u168_20 03EB                   u264_20 02E6                   u256_20 027B  
                 u280_20 0FC3                   u272_20 0F4C                   u192_21 0584  
                 u184_21 0504                   u176_21 048B                   u168_21 03EA  
                 u264_21 02E5                   u248_21 016C                   u280_21 0FC2  
                 u272_21 0F4B                   u184_22 0505                   u248_22 0173  
                 u184_23 050A                   u248_23 017A                   u184_24 050B  
                 u184_25 0510                   u256_25 0276                   u184_26 0511  
                 u193_20 058B                   u185_20 0518                   u177_20 0491  
                 u169_20 0443                   u265_20 02ED                   u281_20 0FC9  
                 u273_20 0F50                   u193_21 058A                   u185_21 0519  
                 u177_21 0490                   u169_21 0442                   u265_21 02EC  
                 u257_21 0287                   u249_21 0199                   u281_21 0FC8  
                 u273_21 0F4F                   u185_22 051E                   u257_22 028E  
                 u249_22 01A0                   u185_23 051F                   u257_23 0295  
                 u249_23 01A7                   u169_25 043F                   u194_20 0590  
                 u186_20 0536                   u266_20 02F3                   u282_20 0FCD  
                 u274_20 0F70                   u194_21 058F                   u186_21 0535  
                 u178_21 04A3                   u266_21 02F2                   u282_21 0FCC  
                 u274_21 0F6F                   u178_22 04AA                   u178_23 04B1  
                 u258_25 0297                   u195_20 0596                   u187_20 055B  
                 u179_20 04B5                   u267_20 0305                   u283_20 0FE2  
                 u195_21 0595                   u187_21 055A                   u179_21 04B4  
                 u267_21 0304                   u259_25 02AE                   u283_25 0FDD  
                 u275_25 0F83                   u196_20 059D                   u188_20 0560  
                 u268_20 0314                   u284_20 0FF2                   u276_20 0F91  
                 u196_21 059C                   u188_21 055F                   u284_21 0FF1  
                 u276_21 0F90                   u268_25 030F                   u197_20 05A3  
                 u269_20 0331                   u285_20 0FF6                   u197_21 05A2  
                 u269_21 0330                   u285_21 0FF5                   u189_25 056B  
                 u269_25 032D                   u277_25 0FA5                   u198_20 05B5  
                 u278_20 0FB3                   u198_21 05B4                   u278_21 0FB2  
                 u199_20 05C4                   u287_20 0E9A                   u287_21 0E99  
                 u199_25 05BF                   u279_25 0FB8                   u288_20 0EA5  
                 u288_21 0EA4                   u289_20 0EED                   u289_21 0EEC  
       __end_of___xxtofl 1000                ??___fladd 005C                ??___fldiv 0028  
              ??___flmul 0042                ??___fltol 00A0                   saved_w 007E  
           ___xxtofl@arg 007A             ___xxtofl@exp 0079             ___xxtofl@val 0070  
__end_of__initialization 0019               ___fltol@f1 0068           __pcstackCOMMON 0070  
          __end_of_setup 0D46                  ??_setup 00B0               __pbssBANK1 00B1  
      __end_of__Umul8_16 0CB4               __pmaintext 0CB4               __pintentry 0004  
                _CCP1CON 0017                  _CCP2CON 001D                ?___xxtofl 0070  
                ___fladd 037E                  ___fldiv 0606                  ___flmul 001D  
                ___fltol 0D46                  __ptext1 0CEC                  __ptext2 0E94  
                __ptext3 0DE2                  __ptext4 0F46                  __ptext5 0D46  
                __ptext6 001D                  __ptext7 0C8D                  __ptext8 0606  
                __ptext9 037E                _T2CONbits 0012               ??___xxtofl 0074  
   end_of_initialization 0019              ___fladd@grs 0067            ___xxtofl@sign 0078  
              _TRISCbits 0087              ___fldiv@grs 0034              ___fldiv@rem 002D  
            ___flmul@grs 0048              _CCP1CONbits 0017              _CCP2CONbits 001D  
    start_initialization 0013              __end_of_map 0E94              __end_of_isr 0F46  
              __Umul8_16 0C8D                ___fladd@a 0058                ___fladd@b 0054  
              ___fldiv@a 0020                ___fldiv@b 0024                ___flmul@a 003E  
              ___flmul@b 003A                ___latbits 0002            __pcstackBANK0 0020  
          __pcstackBANK1 00A0                 ?___fladd 0054                 ?___fldiv 0020  
               ?___flmul 003A                 ?___fltol 0068               ?__Umul8_16 0070  
      interrupt_function 0004                 _PIE1bits 008C                 _PIR1bits 000C  
             _ADCON0bits 001F               _ADCON1bits 009F              ??__Umul8_16 0072  
               ___xxtofl 0F46               _INTCONbits 000B                 intlevel1 0000  
             _OSCCONbits 008F   __Umul8_16@multiplicand 0070            ___fladd@signs 0064  
           ___fladd@aexp 0065             ___fladd@bexp 0066     __Umul8_16@multiplier 0078  
      __Umul8_16@product 0074  
