

Microchip MPLAB XC8 Assembler V2.35 build 20211206165544 
                                                                                               Fri Apr 29 23:16:50 2022

Microchip MPLAB XC8 C Compiler v2.35 (Free license) build 20211206165544 Og1 
     1                           	processor	16F887
     2                           	pagewidth 120
     3                           	opt	flic
     4                           	psect	cinit,global,class=CODE,merge=1,delta=2
     5                           	psect	bssBANK1,global,class=BANK1,space=1,delta=1,noexec
     6                           	psect	cstackBANK1,global,class=BANK1,space=1,delta=1,noexec
     7                           	psect	cstackCOMMON,global,class=COMMON,space=1,delta=1,noexec
     8                           	psect	cstackBANK0,global,class=BANK0,space=1,delta=1,noexec
     9                           	psect	maintext,global,class=CODE,split=1,delta=2
    10                           	psect	text1,local,class=CODE,merge=1,delta=2
    11                           	psect	text2,local,class=CODE,merge=1,delta=2
    12                           	psect	intentry,global,class=CODE,delta=2
    13                           	psect	text3,local,class=CODE,merge=1,delta=2
    14                           	psect	text4,local,class=CODE,merge=1,delta=2,group=1
    15                           	psect	text5,local,class=CODE,merge=1,delta=2,group=1
    16                           	psect	text6,local,class=CODE,merge=1,delta=2,group=1
    17                           	psect	text7,local,class=CODE,merge=1,delta=2,group=1
    18                           	psect	text8,local,class=CODE,merge=1,delta=2,group=1
    19                           	psect	text9,local,class=CODE,merge=1,delta=2,group=1
    20                           	psect	idloc,global,abs,ovrld,class=IDLOC,space=5,delta=2,noexec
    21                           	psect	config,global,abs,ovrld,class=CONFIG,space=4,delta=2,noexec
    22                           	dabs	1,0x7E,2
    23  0000                     
    24                           ; Version 2.40
    25                           ; Generated 17/11/2021 GMT
    26                           ; 
    27                           ; Copyright © 2021, Microchip Technology Inc. and its subsidiaries ("Microchip")
    28                           ; All rights reserved.
    29                           ; 
    30                           ; This software is developed by Microchip Technology Inc. and its subsidiaries ("Microch
      +                          ip").
    31                           ; 
    32                           ; Redistribution and use in source and binary forms, with or without modification, are
    33                           ; permitted provided that the following conditions are met:
    34                           ; 
    35                           ;     1. Redistributions of source code must retain the above copyright notice, this lis
      +                          t of
    36                           ;        conditions and the following disclaimer.
    37                           ; 
    38                           ;     2. Redistributions in binary form must reproduce the above copyright notice, this 
      +                          list
    39                           ;        of conditions and the following disclaimer in the documentation and/or other
    40                           ;        materials provided with the distribution. Publication is not required when
    41                           ;        this file is used in an embedded application.
    42                           ; 
    43                           ;     3. Microchip's name may not be used to endorse or promote products derived from th
      +                          is
    44                           ;        software without specific prior written permission.
    45                           ; 
    46                           ; THIS SOFTWARE IS PROVIDED BY MICROCHIP "AS IS" AND ANY EXPRESS OR IMPLIED WARRANTIES,
    47                           ; INCLUDING, BUT NOT LIMITED TO, THE IMPLIED WARRANTIES OF MERCHANTABILITY AND FITNESS F
      +                          OR
    48                           ; PURPOSE ARE DISCLAIMED.  IN NO EVENT SHALL MICROCHIP BE LIABLE FOR ANY DIRECT, INDIREC
      +                          T,
    49                           ; INCIDENTAL, SPECIAL, EXEMPLARY, OR CONSEQUENTIAL DAMAGES (INCLUDING BUT NOT LIMITED TO
    50                           ; PROCUREMENT OF SUBSTITUTE GOODS OR SERVICES; LOSS OF USE, DATA OR PROFITS; OR BUSINESS
    51                           ; INTERRUPTION) HOWSOEVER CAUSED AND ON ANY THEORY OF LIABILITY, WHETHER IN CONTRACT, ST
      +                          RICT
    52                           ; LIABILITY, OR TORT (INCLUDING NEGLIGENCE OR OTHERWISE) ARISING IN ANY WAY OUT OF THE U
      +                          SE OF
    53                           ; THIS SOFTWARE, EVEN IF ADVISED OF THE POSSIBILITY OF SUCH DAMAGE.
    54                           ; 
    55                           ; 
    56                           ; Code-generator required, PIC16F887 Definitions
    57                           ; 
    58                           ; SFR Addresses
    59  0000                     	;# 
    60  0001                     	;# 
    61  0002                     	;# 
    62  0003                     	;# 
    63  0004                     	;# 
    64  0005                     	;# 
    65  0006                     	;# 
    66  0007                     	;# 
    67  0008                     	;# 
    68  0009                     	;# 
    69  000A                     	;# 
    70  000B                     	;# 
    71  000C                     	;# 
    72  000D                     	;# 
    73  000E                     	;# 
    74  000E                     	;# 
    75  000F                     	;# 
    76  0010                     	;# 
    77  0011                     	;# 
    78  0012                     	;# 
    79  0013                     	;# 
    80  0014                     	;# 
    81  0015                     	;# 
    82  0015                     	;# 
    83  0016                     	;# 
    84  0017                     	;# 
    85  0018                     	;# 
    86  0019                     	;# 
    87  001A                     	;# 
    88  001B                     	;# 
    89  001B                     	;# 
    90  001C                     	;# 
    91  001D                     	;# 
    92  001E                     	;# 
    93  001F                     	;# 
    94  0081                     	;# 
    95  0085                     	;# 
    96  0086                     	;# 
    97  0087                     	;# 
    98  0088                     	;# 
    99  0089                     	;# 
   100  008C                     	;# 
   101  008D                     	;# 
   102  008E                     	;# 
   103  008F                     	;# 
   104  0090                     	;# 
   105  0091                     	;# 
   106  0092                     	;# 
   107  0093                     	;# 
   108  0093                     	;# 
   109  0093                     	;# 
   110  0094                     	;# 
   111  0095                     	;# 
   112  0096                     	;# 
   113  0097                     	;# 
   114  0098                     	;# 
   115  0099                     	;# 
   116  009A                     	;# 
   117  009B                     	;# 
   118  009C                     	;# 
   119  009D                     	;# 
   120  009E                     	;# 
   121  009F                     	;# 
   122  0105                     	;# 
   123  0107                     	;# 
   124  0108                     	;# 
   125  0109                     	;# 
   126  010C                     	;# 
   127  010C                     	;# 
   128  010D                     	;# 
   129  010E                     	;# 
   130  010F                     	;# 
   131  0185                     	;# 
   132  0187                     	;# 
   133  0188                     	;# 
   134  0189                     	;# 
   135  018C                     	;# 
   136  018D                     	;# 
   137  0000                     	;# 
   138  0001                     	;# 
   139  0002                     	;# 
   140  0003                     	;# 
   141  0004                     	;# 
   142  0005                     	;# 
   143  0006                     	;# 
   144  0007                     	;# 
   145  0008                     	;# 
   146  0009                     	;# 
   147  000A                     	;# 
   148  000B                     	;# 
   149  000C                     	;# 
   150  000D                     	;# 
   151  000E                     	;# 
   152  000E                     	;# 
   153  000F                     	;# 
   154  0010                     	;# 
   155  0011                     	;# 
   156  0012                     	;# 
   157  0013                     	;# 
   158  0014                     	;# 
   159  0015                     	;# 
   160  0015                     	;# 
   161  0016                     	;# 
   162  0017                     	;# 
   163  0018                     	;# 
   164  0019                     	;# 
   165  001A                     	;# 
   166  001B                     	;# 
   167  001B                     	;# 
   168  001C                     	;# 
   169  001D                     	;# 
   170  001E                     	;# 
   171  001F                     	;# 
   172  0081                     	;# 
   173  0085                     	;# 
   174  0086                     	;# 
   175  0087                     	;# 
   176  0088                     	;# 
   177  0089                     	;# 
   178  008C                     	;# 
   179  008D                     	;# 
   180  008E                     	;# 
   181  008F                     	;# 
   182  0090                     	;# 
   183  0091                     	;# 
   184  0092                     	;# 
   185  0093                     	;# 
   186  0093                     	;# 
   187  0093                     	;# 
   188  0094                     	;# 
   189  0095                     	;# 
   190  0096                     	;# 
   191  0097                     	;# 
   192  0098                     	;# 
   193  0099                     	;# 
   194  009A                     	;# 
   195  009B                     	;# 
   196  009C                     	;# 
   197  009D                     	;# 
   198  009E                     	;# 
   199  009F                     	;# 
   200  0105                     	;# 
   201  0107                     	;# 
   202  0108                     	;# 
   203  0109                     	;# 
   204  010C                     	;# 
   205  010C                     	;# 
   206  010D                     	;# 
   207  010E                     	;# 
   208  010F                     	;# 
   209  0185                     	;# 
   210  0187                     	;# 
   211  0188                     	;# 
   212  0189                     	;# 
   213  018C                     	;# 
   214  018D                     	;# 
   215  0012                     _T2CONbits	set	18
   216  001D                     _CCP2CON	set	29
   217  0017                     _CCP1CON	set	23
   218  0005                     _PORTA	set	5
   219  0007                     _PORTCbits	set	7
   220  0001                     _TMR0	set	1
   221  000B                     _INTCONbits	set	11
   222  0008                     _PORTD	set	8
   223  001D                     _CCP2CONbits	set	29
   224  001B                     _CCPR2L	set	27
   225  0017                     _CCP1CONbits	set	23
   226  0015                     _CCPR1L	set	21
   227  001E                     _ADRESH	set	30
   228  001F                     _ADCON0bits	set	31
   229  000C                     _PIR1bits	set	12
   230  008C                     _PIE1bits	set	140
   231  0081                     _OPTION_REGbits	set	129
   232  0092                     _PR2	set	146
   233  0087                     _TRISCbits	set	135
   234  009F                     _ADCON1bits	set	159
   235  0088                     _TRISD	set	136
   236  0085                     _TRISA	set	133
   237  008F                     _OSCCONbits	set	143
   238  0189                     _ANSELH	set	393
   239  0188                     _ANSEL	set	392
   240                           
   241                           	psect	cinit
   242  0013                     start_initialization:	
   243                           ; #config settings
   244                           
   245  0013                     __initialization:
   246                           
   247                           ; Clear objects allocated to BANK1
   248  0013  1683               	bsf	3,5	;RP0=1, select bank1
   249  0014  1303               	bcf	3,6	;RP1=0, select bank1
   250  0015  01B1               	clrf	__pbssBANK1& (0+127)
   251  0016  01B2               	clrf	(__pbssBANK1+1)& (0+127)
   252  0017  01B3               	clrf	(__pbssBANK1+2)& (0+127)
   253  0018  01B4               	clrf	(__pbssBANK1+3)& (0+127)
   254  0019  01B5               	clrf	(__pbssBANK1+4)& (0+127)
   255  001A  01B6               	clrf	(__pbssBANK1+5)& (0+127)
   256  001B  01B7               	clrf	(__pbssBANK1+6)& (0+127)
   257  001C  01B8               	clrf	(__pbssBANK1+7)& (0+127)
   258  001D                     end_of_initialization:	
   259                           ;End of C runtime variable initialization code
   260                           
   261  001D                     __end_of__initialization:
   262  001D  0183               	clrf	3
   263  001E  120A  158A  2C30   	ljmp	_main	;jump to C main() function
   264                           
   265                           	psect	bssBANK1
   266  00B1                     __pbssBANK1:
   267  00B1                     _pulse_w:
   268  00B1                     	ds	2
   269  00B3                     _cont_tmr0:
   270  00B3                     	ds	2
   271  00B5                     _CCPR_2:
   272  00B5                     	ds	2
   273  00B7                     _CCPR:
   274  00B7                     	ds	2
   275                           
   276                           	psect	cstackBANK1
   277  00A0                     __pcstackBANK1:
   278  00A0                     ??___fltol:
   279                           
   280                           ; 1 bytes @ 0x0
   281  00A0                     	ds	5
   282  00A5                     ?_map:
   283  00A5                     map@x0:	
   284                           ; 2 bytes @ 0x5
   285                           
   286                           
   287                           ; 1 bytes @ 0x5
   288  00A5                     	ds	1
   289  00A6                     map@x1:
   290                           
   291                           ; 1 bytes @ 0x6
   292  00A6                     	ds	1
   293  00A7                     map@y0:
   294                           
   295                           ; 2 bytes @ 0x7
   296  00A7                     	ds	2
   297  00A9                     map@y1:
   298                           
   299                           ; 2 bytes @ 0x9
   300  00A9                     	ds	2
   301  00AB                     ??_isr:
   302                           
   303                           ; 1 bytes @ 0xB
   304  00AB                     	ds	5
   305  00B0                     ??_setup:
   306  00B0                     ??_main:	
   307                           ; 1 bytes @ 0x10
   308                           
   309                           
   310                           ; 1 bytes @ 0x10
   311  00B0                     	ds	1
   312                           
   313                           	psect	cstackCOMMON
   314  0070                     __pcstackCOMMON:
   315  0070                     ?_setup:
   316  0070                     ?_isr:	
   317                           ; 1 bytes @ 0x0
   318                           
   319  0070                     ?_main:	
   320                           ; 1 bytes @ 0x0
   321                           
   322  0070                     ?__Umul8_16:	
   323                           ; 1 bytes @ 0x0
   324                           
   325  0070                     ?___xxtofl:	
   326                           ; 2 bytes @ 0x0
   327                           
   328  0070                     __Umul8_16@multiplicand:	
   329                           ; 4 bytes @ 0x0
   330                           
   331  0070                     ___xxtofl@val:	
   332                           ; 1 bytes @ 0x0
   333                           
   334                           
   335                           ; 4 bytes @ 0x0
   336  0070                     	ds	2
   337  0072                     ??__Umul8_16:
   338                           
   339                           ; 1 bytes @ 0x2
   340  0072                     	ds	2
   341  0074                     ??___xxtofl:
   342  0074                     __Umul8_16@product:	
   343                           ; 1 bytes @ 0x4
   344                           
   345                           
   346                           ; 2 bytes @ 0x4
   347  0074                     	ds	2
   348  0076                     __Umul8_16@word_mpld:
   349                           
   350                           ; 2 bytes @ 0x6
   351  0076                     	ds	2
   352  0078                     __Umul8_16@multiplier:
   353  0078                     ___xxtofl@sign:	
   354                           ; 1 bytes @ 0x8
   355                           
   356                           
   357                           ; 1 bytes @ 0x8
   358  0078                     	ds	1
   359  0079                     ___xxtofl@exp:
   360                           
   361                           ; 1 bytes @ 0x9
   362  0079                     	ds	1
   363  007A                     ___xxtofl@arg:
   364                           
   365                           ; 4 bytes @ 0xA
   366  007A                     	ds	4
   367  007E                     ??_map:
   368                           
   369                           	psect	cstackBANK0
   370  0020                     __pcstackBANK0:	
   371                           ; 1 bytes @ 0xE
   372                           
   373  0020                     ?___fldiv:
   374  0020                     ___fldiv@a:	
   375                           ; 4 bytes @ 0x0
   376                           
   377                           
   378                           ; 4 bytes @ 0x0
   379  0020                     	ds	4
   380  0024                     ___fldiv@b:
   381                           
   382                           ; 4 bytes @ 0x4
   383  0024                     	ds	4
   384  0028                     ??___fldiv:
   385                           
   386                           ; 1 bytes @ 0x8
   387  0028                     	ds	5
   388  002D                     ___fldiv@rem:
   389                           
   390                           ; 4 bytes @ 0xD
   391  002D                     	ds	4
   392  0031                     ___fldiv@sign:
   393                           
   394                           ; 1 bytes @ 0x11
   395  0031                     	ds	1
   396  0032                     ___fldiv@new_exp:
   397                           
   398                           ; 2 bytes @ 0x12
   399  0032                     	ds	2
   400  0034                     ___fldiv@grs:
   401                           
   402                           ; 4 bytes @ 0x14
   403  0034                     	ds	4
   404  0038                     ___fldiv@bexp:
   405                           
   406                           ; 1 bytes @ 0x18
   407  0038                     	ds	1
   408  0039                     ___fldiv@aexp:
   409                           
   410                           ; 1 bytes @ 0x19
   411  0039                     	ds	1
   412  003A                     ?___flmul:
   413  003A                     ___flmul@b:	
   414                           ; 4 bytes @ 0x1A
   415                           
   416                           
   417                           ; 4 bytes @ 0x1A
   418  003A                     	ds	4
   419  003E                     ___flmul@a:
   420                           
   421                           ; 4 bytes @ 0x1E
   422  003E                     	ds	4
   423  0042                     ??___flmul:
   424                           
   425                           ; 1 bytes @ 0x22
   426  0042                     	ds	5
   427  0047                     ___flmul@sign:
   428                           
   429                           ; 1 bytes @ 0x27
   430  0047                     	ds	1
   431  0048                     ___flmul@grs:
   432                           
   433                           ; 4 bytes @ 0x28
   434  0048                     	ds	4
   435  004C                     ___flmul@aexp:
   436                           
   437                           ; 1 bytes @ 0x2C
   438  004C                     	ds	1
   439  004D                     ___flmul@bexp:
   440                           
   441                           ; 1 bytes @ 0x2D
   442  004D                     	ds	1
   443  004E                     ___flmul@prod:
   444                           
   445                           ; 4 bytes @ 0x2E
   446  004E                     	ds	4
   447  0052                     ___flmul@temp:
   448                           
   449                           ; 2 bytes @ 0x32
   450  0052                     	ds	2
   451  0054                     ?___fladd:
   452  0054                     ___fladd@b:	
   453                           ; 4 bytes @ 0x34
   454                           
   455                           
   456                           ; 4 bytes @ 0x34
   457  0054                     	ds	4
   458  0058                     ___fladd@a:
   459                           
   460                           ; 4 bytes @ 0x38
   461  0058                     	ds	4
   462  005C                     ??___fladd:
   463                           
   464                           ; 1 bytes @ 0x3C
   465  005C                     	ds	8
   466  0064                     ___fladd@signs:
   467                           
   468                           ; 1 bytes @ 0x44
   469  0064                     	ds	1
   470  0065                     ___fladd@aexp:
   471                           
   472                           ; 1 bytes @ 0x45
   473  0065                     	ds	1
   474  0066                     ___fladd@bexp:
   475                           
   476                           ; 1 bytes @ 0x46
   477  0066                     	ds	1
   478  0067                     ___fladd@grs:
   479                           
   480                           ; 1 bytes @ 0x47
   481  0067                     	ds	1
   482  0068                     ?___fltol:
   483  0068                     ___fltol@f1:	
   484                           ; 4 bytes @ 0x48
   485                           
   486                           
   487                           ; 4 bytes @ 0x48
   488  0068                     	ds	4
   489  006C                     ___fltol@sign1:
   490                           
   491                           ; 1 bytes @ 0x4C
   492  006C                     	ds	1
   493  006D                     ___fltol@exp1:
   494                           
   495                           ; 1 bytes @ 0x4D
   496  006D                     	ds	1
   497  006E                     map@x:
   498                           
   499                           ; 1 bytes @ 0x4E
   500  006E                     	ds	1
   501                           
   502                           	psect	maintext
   503  0C30                     __pmaintext:	
   504 ;;
   505 ;;Main: autosize = 0, tempsize = 1, incstack = 0, save=0
   506 ;;
   507 ;; *************** function _main *****************
   508 ;; Defined at:
   509 ;;		line 97 in file "main_postLab.c"
   510 ;; Parameters:    Size  Location     Type
   511 ;;		None
   512 ;; Auto vars:     Size  Location     Type
   513 ;;		None
   514 ;; Return value:  Size  Location     Type
   515 ;;                  1    wreg      void 
   516 ;; Registers used:
   517 ;;		wreg, status,2, status,0, pclath, cstack
   518 ;; Tracked objects:
   519 ;;		On entry : B00/0
   520 ;;		On exit  : 0/0
   521 ;;		Unchanged: 0/0
   522 ;; Data sizes:     COMMON   BANK0   BANK1   BANK3   BANK2
   523 ;;      Params:         0       0       0       0       0
   524 ;;      Locals:         0       0       0       0       0
   525 ;;      Temps:          0       0       1       0       0
   526 ;;      Totals:         0       0       1       0       0
   527 ;;Total ram usage:        1 bytes
   528 ;; Hardware stack levels required when called: 5
   529 ;; This function calls:
   530 ;;		_setup
   531 ;; This function is called by:
   532 ;;		Startup code after reset
   533 ;; This function uses a non-reentrant model
   534 ;;
   535                           
   536  0C30                     _main:	
   537                           ;psect for function _main
   538                           
   539  0C30                     l2081:	
   540                           ;incstack = 0
   541                           ; Regs used in _main: [wreg+status,2+status,0+pclath+cstack]
   542                           
   543                           
   544                           ;main_postLab.c: 99:     setup();
   545  0C30  120A  158A  247C  120A  158A  	fcall	_setup
   546  0C35                     l2083:
   547                           
   548                           ;main_postLab.c: 102:     {;main_postLab.c: 103:        if(ADCON0bits.GO == 0){
   549  0C35  1283               	bcf	3,5	;RP0=0, select bank0
   550  0C36  1303               	bcf	3,6	;RP1=0, select bank0
   551  0C37  189F               	btfsc	31,1	;volatile
   552  0C38  2C3A               	goto	u2991
   553  0C39  2C3B               	goto	u2990
   554  0C3A                     u2991:
   555  0C3A  2C35               	goto	l2083
   556  0C3B                     u2990:
   557  0C3B                     l2085:
   558                           
   559                           ;main_postLab.c: 104:             if(ADCON0bits.CHS == 0)
   560  0C3B  0C1F               	rrf	31,w	;volatile
   561  0C3C  1683               	bsf	3,5	;RP0=1, select bank1
   562  0C3D  1303               	bcf	3,6	;RP1=0, select bank1
   563  0C3E  00B0               	movwf	??_main^(0+128)
   564  0C3F  0C30               	rrf	??_main^(0+128),w
   565  0C40  390F               	andlw	15
   566  0C41  3A00               	xorlw	0
   567  0C42  1D03               	skipz
   568  0C43  2C45               	goto	u3001
   569  0C44  2C46               	goto	u3000
   570  0C45                     u3001:
   571  0C45  2C4D               	goto	l2089
   572  0C46                     u3000:
   573  0C46                     l2087:
   574                           
   575                           ;main_postLab.c: 105:                  ADCON0bits.CHS = 1;
   576  0C46  1283               	bcf	3,5	;RP0=0, select bank0
   577  0C47  1303               	bcf	3,6	;RP1=0, select bank0
   578  0C48  081F               	movf	31,w	;volatile
   579  0C49  39C3               	andlw	-61
   580  0C4A  3804               	iorlw	4
   581  0C4B  009F               	movwf	31	;volatile
   582  0C4C  2C72               	goto	l2097
   583  0C4D                     l2089:
   584  0C4D  1283               	bcf	3,5	;RP0=0, select bank0
   585  0C4E  1303               	bcf	3,6	;RP1=0, select bank0
   586  0C4F  0C1F               	rrf	31,w	;volatile
   587  0C50  1683               	bsf	3,5	;RP0=1, select bank1
   588  0C51  1303               	bcf	3,6	;RP1=0, select bank1
   589  0C52  00B0               	movwf	??_main^(0+128)
   590  0C53  0C30               	rrf	??_main^(0+128),w
   591  0C54  390F               	andlw	15
   592  0C55  3A01               	xorlw	1
   593  0C56  1D03               	skipz
   594  0C57  2C59               	goto	u3011
   595  0C58  2C5A               	goto	u3010
   596  0C59                     u3011:
   597  0C59  2C61               	goto	l2093
   598  0C5A                     u3010:
   599  0C5A                     l2091:
   600                           
   601                           ;main_postLab.c: 107:                  ADCON0bits.CHS = 2;
   602  0C5A  1283               	bcf	3,5	;RP0=0, select bank0
   603  0C5B  1303               	bcf	3,6	;RP1=0, select bank0
   604  0C5C  081F               	movf	31,w	;volatile
   605  0C5D  39C3               	andlw	-61
   606  0C5E  3808               	iorlw	8
   607  0C5F  009F               	movwf	31	;volatile
   608  0C60  2C72               	goto	l2097
   609  0C61                     l2093:
   610  0C61  1283               	bcf	3,5	;RP0=0, select bank0
   611  0C62  1303               	bcf	3,6	;RP1=0, select bank0
   612  0C63  0C1F               	rrf	31,w	;volatile
   613  0C64  1683               	bsf	3,5	;RP0=1, select bank1
   614  0C65  1303               	bcf	3,6	;RP1=0, select bank1
   615  0C66  00B0               	movwf	??_main^(0+128)
   616  0C67  0C30               	rrf	??_main^(0+128),w
   617  0C68  390F               	andlw	15
   618  0C69  3A02               	xorlw	2
   619  0C6A  1D03               	skipz
   620  0C6B  2C6D               	goto	u3021
   621  0C6C  2C6E               	goto	u3020
   622  0C6D                     u3021:
   623  0C6D  2C72               	goto	l2097
   624  0C6E                     u3020:
   625  0C6E                     l2095:
   626                           
   627                           ;main_postLab.c: 109:                  ADCON0bits.CHS = 0;
   628  0C6E  30C3               	movlw	-61
   629  0C6F  1283               	bcf	3,5	;RP0=0, select bank0
   630  0C70  1303               	bcf	3,6	;RP1=0, select bank0
   631  0C71  059F               	andwf	31,f	;volatile
   632  0C72                     l2097:
   633                           
   634                           ;main_postLab.c: 110:         _delay((unsigned long)((40)*(500000/4000000.0)));
   635  0C72  2C73               	nop2	;2 cycle nop
   636  0C73  2C74               	nop2	;2 cycle nop
   637  0C74  0000               	nop
   638  0C75                     l2099:
   639                           
   640                           ;main_postLab.c: 111:         ADCON0bits.GO = 1;
   641  0C75  1283               	bcf	3,5	;RP0=0, select bank0
   642  0C76  1303               	bcf	3,6	;RP1=0, select bank0
   643  0C77  149F               	bsf	31,1	;volatile
   644  0C78  2C35               	goto	l2083
   645  0C79  120A  118A  2810   	ljmp	start
   646  0C7C                     __end_of_main:
   647                           
   648                           	psect	text1
   649  0C7C                     __ptext1:	
   650 ;; *************** function _setup *****************
   651 ;; Defined at:
   652 ;;		line 117 in file "main_postLab.c"
   653 ;; Parameters:    Size  Location     Type
   654 ;;		None
   655 ;; Auto vars:     Size  Location     Type
   656 ;;		None
   657 ;; Return value:  Size  Location     Type
   658 ;;                  1    wreg      void 
   659 ;; Registers used:
   660 ;;		wreg, status,2, status,0
   661 ;; Tracked objects:
   662 ;;		On entry : 0/0
   663 ;;		On exit  : 0/0
   664 ;;		Unchanged: 0/0
   665 ;; Data sizes:     COMMON   BANK0   BANK1   BANK3   BANK2
   666 ;;      Params:         0       0       0       0       0
   667 ;;      Locals:         0       0       0       0       0
   668 ;;      Temps:          0       0       0       0       0
   669 ;;      Totals:         0       0       0       0       0
   670 ;;Total ram usage:        0 bytes
   671 ;; Hardware stack levels used: 1
   672 ;; Hardware stack levels required when called: 4
   673 ;; This function calls:
   674 ;;		Nothing
   675 ;; This function is called by:
   676 ;;		_main
   677 ;; This function uses a non-reentrant model
   678 ;;
   679                           
   680  0C7C                     _setup:	
   681                           ;psect for function _setup
   682                           
   683  0C7C                     l1971:	
   684                           ;incstack = 0
   685                           ; Regs used in _setup: [wreg+status,2+status,0]
   686                           
   687                           
   688                           ;main_postLab.c: 118:     ANSEL = 0b00000111;
   689  0C7C  3007               	movlw	7
   690  0C7D  1683               	bsf	3,5	;RP0=1, select bank3
   691  0C7E  1703               	bsf	3,6	;RP1=1, select bank3
   692  0C7F  0088               	movwf	8	;volatile
   693  0C80                     l1973:
   694                           
   695                           ;main_postLab.c: 119:     ANSELH = 0;
   696  0C80  0189               	clrf	9	;volatile
   697  0C81                     l1975:
   698                           
   699                           ;main_postLab.c: 121:     OSCCONbits.IRCF = 0b011;
   700  0C81  1683               	bsf	3,5	;RP0=1, select bank1
   701  0C82  1303               	bcf	3,6	;RP1=0, select bank1
   702  0C83  080F               	movf	15,w	;volatile
   703  0C84  398F               	andlw	-113
   704  0C85  3830               	iorlw	48
   705  0C86  008F               	movwf	15	;volatile
   706  0C87                     l1977:
   707                           
   708                           ;main_postLab.c: 122:     OSCCONbits.SCS = 1;
   709  0C87  140F               	bsf	15,0	;volatile
   710  0C88                     l1979:
   711                           
   712                           ;main_postLab.c: 124:     TRISA = 0b00000111;
   713  0C88  3007               	movlw	7
   714  0C89  0085               	movwf	5	;volatile
   715  0C8A                     l1981:
   716                           
   717                           ;main_postLab.c: 125:     PORTA = 0;
   718  0C8A  1283               	bcf	3,5	;RP0=0, select bank0
   719  0C8B  1303               	bcf	3,6	;RP1=0, select bank0
   720  0C8C  0185               	clrf	5	;volatile
   721  0C8D                     l1983:
   722                           
   723                           ;main_postLab.c: 126:     TRISD = 0;
   724  0C8D  1683               	bsf	3,5	;RP0=1, select bank1
   725  0C8E  1303               	bcf	3,6	;RP1=0, select bank1
   726  0C8F  0188               	clrf	8	;volatile
   727  0C90                     l1985:
   728                           
   729                           ;main_postLab.c: 127:     PORTD = 0;
   730  0C90  1283               	bcf	3,5	;RP0=0, select bank0
   731  0C91  1303               	bcf	3,6	;RP1=0, select bank0
   732  0C92  0188               	clrf	8	;volatile
   733                           
   734                           ;main_postLab.c: 130:     ADCON0bits.ADCS = 0b11;
   735  0C93  30C0               	movlw	192
   736  0C94  049F               	iorwf	31,f	;volatile
   737  0C95                     l1987:
   738                           
   739                           ;main_postLab.c: 131:     ADCON1bits.VCFG0 = 0;
   740  0C95  1683               	bsf	3,5	;RP0=1, select bank1
   741  0C96  1303               	bcf	3,6	;RP1=0, select bank1
   742  0C97  121F               	bcf	31,4	;volatile
   743  0C98                     l1989:
   744                           
   745                           ;main_postLab.c: 132:     ADCON1bits.VCFG1 = 0;
   746  0C98  129F               	bcf	31,5	;volatile
   747                           
   748                           ;main_postLab.c: 133:     ADCON0bits.CHS = 0;
   749  0C99  30C3               	movlw	-61
   750  0C9A  1283               	bcf	3,5	;RP0=0, select bank0
   751  0C9B  1303               	bcf	3,6	;RP1=0, select bank0
   752  0C9C  059F               	andwf	31,f	;volatile
   753  0C9D                     l1991:
   754                           
   755                           ;main_postLab.c: 134:     ADCON1bits.ADFM = 0;
   756  0C9D  1683               	bsf	3,5	;RP0=1, select bank1
   757  0C9E  1303               	bcf	3,6	;RP1=0, select bank1
   758  0C9F  139F               	bcf	31,7	;volatile
   759  0CA0                     l1993:
   760                           
   761                           ;main_postLab.c: 135:     ADCON0bits.ADON = 1;
   762  0CA0  1283               	bcf	3,5	;RP0=0, select bank0
   763  0CA1  1303               	bcf	3,6	;RP1=0, select bank0
   764  0CA2  141F               	bsf	31,0	;volatile
   765  0CA3                     l1995:
   766                           
   767                           ;main_postLab.c: 136:     _delay((unsigned long)((40)*(500000/4000000.0)));
   768  0CA3  2CA4               	nop2	;2 cycle nop
   769  0CA4  2CA5               	nop2	;2 cycle nop
   770  0CA5  0000               	nop
   771  0CA6                     l1997:
   772                           
   773                           ;main_postLab.c: 139:     TRISCbits.TRISC2 = 1;
   774  0CA6  1683               	bsf	3,5	;RP0=1, select bank1
   775  0CA7  1303               	bcf	3,6	;RP1=0, select bank1
   776  0CA8  1507               	bsf	7,2	;volatile
   777  0CA9                     l1999:
   778                           
   779                           ;main_postLab.c: 140:     TRISCbits.TRISC1 = 1;
   780  0CA9  1487               	bsf	7,1	;volatile
   781  0CAA                     l2001:
   782                           
   783                           ;main_postLab.c: 141:     CCP1CON = 0;
   784  0CAA  1283               	bcf	3,5	;RP0=0, select bank0
   785  0CAB  1303               	bcf	3,6	;RP1=0, select bank0
   786  0CAC  0197               	clrf	23	;volatile
   787  0CAD                     l2003:
   788                           
   789                           ;main_postLab.c: 142:     CCP2CON = 0;
   790  0CAD  019D               	clrf	29	;volatile
   791  0CAE                     l2005:
   792                           
   793                           ;main_postLab.c: 143:     PR2 = 155;
   794  0CAE  309B               	movlw	155
   795  0CAF  1683               	bsf	3,5	;RP0=1, select bank1
   796  0CB0  1303               	bcf	3,6	;RP1=0, select bank1
   797  0CB1  0092               	movwf	18	;volatile
   798  0CB2                     l2007:
   799                           
   800                           ;main_postLab.c: 146:     CCP1CONbits.P1M = 0;
   801  0CB2  303F               	movlw	-193
   802  0CB3  1283               	bcf	3,5	;RP0=0, select bank0
   803  0CB4  1303               	bcf	3,6	;RP1=0, select bank0
   804  0CB5  0597               	andwf	23,f	;volatile
   805  0CB6                     l2009:
   806                           
   807                           ;main_postLab.c: 147:     CCP1CONbits.CCP1M = 0b1100;
   808  0CB6  0817               	movf	23,w	;volatile
   809  0CB7  39F0               	andlw	-16
   810  0CB8  380C               	iorlw	12
   811  0CB9  0097               	movwf	23	;volatile
   812  0CBA                     l2011:
   813                           
   814                           ;main_postLab.c: 148:     CCP2CONbits.CCP2M = 0b1100;
   815  0CBA  081D               	movf	29,w	;volatile
   816  0CBB  39F0               	andlw	-16
   817  0CBC  380C               	iorlw	12
   818  0CBD  009D               	movwf	29	;volatile
   819                           
   820                           ;main_postLab.c: 150:     CCPR1L = 30>>2;
   821  0CBE  3007               	movlw	7
   822  0CBF  0095               	movwf	21	;volatile
   823  0CC0                     l2013:
   824                           
   825                           ;main_postLab.c: 151:     CCP1CONbits.DC1B = 30 & 0b11;
   826  0CC0  0817               	movf	23,w	;volatile
   827  0CC1  39CF               	andlw	-49
   828  0CC2  3820               	iorlw	32
   829  0CC3  0097               	movwf	23	;volatile
   830  0CC4                     l2015:
   831                           
   832                           ;main_postLab.c: 154:     CCPR2L = 30>>2;
   833  0CC4  3007               	movlw	7
   834  0CC5  009B               	movwf	27	;volatile
   835  0CC6                     l2017:
   836                           
   837                           ;main_postLab.c: 155:     CCP2CONbits.DC2B0 = 30 & 0b01;
   838  0CC6  121D               	bcf	29,4	;volatile
   839  0CC7                     l2019:
   840                           
   841                           ;main_postLab.c: 156:     CCP2CONbits.DC2B1 = (30 & 0b10)>>1;
   842  0CC7  169D               	bsf	29,5	;volatile
   843  0CC8                     l2021:
   844                           
   845                           ;main_postLab.c: 159:     PIR1bits.TMR2IF = 0;
   846  0CC8  108C               	bcf	12,1	;volatile
   847                           
   848                           ;main_postLab.c: 160:     T2CONbits.T2CKPS = 0b11;
   849  0CC9  3003               	movlw	3
   850  0CCA  0492               	iorwf	18,f	;volatile
   851  0CCB                     l2023:
   852                           
   853                           ;main_postLab.c: 161:     T2CONbits.TMR2ON = 1;
   854  0CCB  1512               	bsf	18,2	;volatile
   855  0CCC                     l95:	
   856                           ;main_postLab.c: 162:     while(!PIR1bits.TMR2IF);
   857                           
   858  0CCC  1C8C               	btfss	12,1	;volatile
   859  0CCD  2CCF               	goto	u2911
   860  0CCE  2CD0               	goto	u2910
   861  0CCF                     u2911:
   862  0CCF  2CCC               	goto	l95
   863  0CD0                     u2910:
   864  0CD0                     l97:
   865                           
   866                           ;main_postLab.c: 163:     PIR1bits.TMR2IF = 0;
   867  0CD0  108C               	bcf	12,1	;volatile
   868                           
   869                           ;main_postLab.c: 165:     TRISCbits.TRISC3 = 0;
   870  0CD1  1683               	bsf	3,5	;RP0=1, select bank1
   871  0CD2  1303               	bcf	3,6	;RP1=0, select bank1
   872  0CD3  1187               	bcf	7,3	;volatile
   873                           
   874                           ;main_postLab.c: 166:     TRISCbits.TRISC2 = 0;
   875  0CD4  1107               	bcf	7,2	;volatile
   876                           
   877                           ;main_postLab.c: 167:     TRISCbits.TRISC1 = 0;
   878  0CD5  1087               	bcf	7,1	;volatile
   879                           
   880                           ;main_postLab.c: 170:     OPTION_REGbits.T0CS = 0;
   881  0CD6  1281               	bcf	1,5	;volatile
   882                           
   883                           ;main_postLab.c: 171:     OPTION_REGbits.PSA = 0;
   884  0CD7  1181               	bcf	1,3	;volatile
   885                           
   886                           ;main_postLab.c: 172:     OPTION_REGbits.PS2 = 1;
   887  0CD8  1501               	bsf	1,2	;volatile
   888                           
   889                           ;main_postLab.c: 173:     OPTION_REGbits.PS1 = 1;
   890  0CD9  1481               	bsf	1,1	;volatile
   891                           
   892                           ;main_postLab.c: 174:     OPTION_REGbits.PS0 = 1;
   893  0CDA  1401               	bsf	1,0	;volatile
   894  0CDB                     l2025:
   895                           
   896                           ;main_postLab.c: 175:     TMR0 = 255;
   897  0CDB  30FF               	movlw	255
   898  0CDC  1283               	bcf	3,5	;RP0=0, select bank0
   899  0CDD  1303               	bcf	3,6	;RP1=0, select bank0
   900  0CDE  0081               	movwf	1	;volatile
   901  0CDF                     l2027:
   902                           
   903                           ;main_postLab.c: 178:     INTCONbits.GIE = 1;
   904  0CDF  178B               	bsf	11,7	;volatile
   905  0CE0                     l2029:
   906                           
   907                           ;main_postLab.c: 179:     PIE1bits.ADIE = 1;
   908  0CE0  1683               	bsf	3,5	;RP0=1, select bank1
   909  0CE1  1303               	bcf	3,6	;RP1=0, select bank1
   910  0CE2  170C               	bsf	12,6	;volatile
   911  0CE3                     l2031:
   912                           
   913                           ;main_postLab.c: 180:     PIR1bits.ADIF = 0;
   914  0CE3  1283               	bcf	3,5	;RP0=0, select bank0
   915  0CE4  1303               	bcf	3,6	;RP1=0, select bank0
   916  0CE5  130C               	bcf	12,6	;volatile
   917  0CE6                     l2033:
   918                           
   919                           ;main_postLab.c: 181:     INTCONbits.PEIE = 1;
   920  0CE6  170B               	bsf	11,6	;volatile
   921  0CE7                     l98:
   922  0CE7  0008               	return
   923  0CE8                     __end_of_setup:
   924                           
   925                           	psect	text2
   926  0EF0                     __ptext2:	
   927 ;; *************** function _isr *****************
   928 ;; Defined at:
   929 ;;		line 61 in file "main_postLab.c"
   930 ;; Parameters:    Size  Location     Type
   931 ;;		None
   932 ;; Auto vars:     Size  Location     Type
   933 ;;		None
   934 ;; Return value:  Size  Location     Type
   935 ;;                  1    wreg      void 
   936 ;; Registers used:
   937 ;;		wreg, status,2, status,0, btemp+1, pclath, cstack
   938 ;; Tracked objects:
   939 ;;		On entry : 0/0
   940 ;;		On exit  : 0/0
   941 ;;		Unchanged: 0/0
   942 ;; Data sizes:     COMMON   BANK0   BANK1   BANK3   BANK2
   943 ;;      Params:         0       0       0       0       0
   944 ;;      Locals:         0       0       0       0       0
   945 ;;      Temps:          0       0       5       0       0
   946 ;;      Totals:         0       0       5       0       0
   947 ;;Total ram usage:        5 bytes
   948 ;; Hardware stack levels used: 1
   949 ;; Hardware stack levels required when called: 3
   950 ;; This function calls:
   951 ;;		_map
   952 ;; This function is called by:
   953 ;;		Interrupt level 1
   954 ;; This function uses a non-reentrant model
   955 ;;
   956                           
   957  0EF0                     _isr:	
   958                           ;psect for function _isr
   959                           
   960  0EF0                     i1l2037:
   961                           
   962                           ;main_postLab.c: 63:     if (PIR1bits.ADIF){
   963  0EF0  1283               	bcf	3,5	;RP0=0, select bank0
   964  0EF1  1303               	bcf	3,6	;RP1=0, select bank0
   965  0EF2  1F0C               	btfss	12,6	;volatile
   966  0EF3  2EF5               	goto	u292_21
   967  0EF4  2EF6               	goto	u292_20
   968  0EF5                     u292_21:
   969  0EF5  2FC6               	goto	i1l2065
   970  0EF6                     u292_20:
   971  0EF6                     i1l2039:
   972                           
   973                           ;main_postLab.c: 64:         if (ADCON0bits.CHS == 0){
   974  0EF6  0C1F               	rrf	31,w	;volatile
   975  0EF7  1683               	bsf	3,5	;RP0=1, select bank1
   976  0EF8  1303               	bcf	3,6	;RP1=0, select bank1
   977  0EF9  00AB               	movwf	??_isr^(0+128)
   978  0EFA  0C2B               	rrf	??_isr^(0+128),w
   979  0EFB  390F               	andlw	15
   980  0EFC  3A00               	xorlw	0
   981  0EFD  1D03               	skipz
   982  0EFE  2F00               	goto	u293_21
   983  0EFF  2F01               	goto	u293_20
   984  0F00                     u293_21:
   985  0F00  2F3C               	goto	i1l2047
   986  0F01                     u293_20:
   987  0F01                     i1l2041:
   988                           
   989                           ;main_postLab.c: 65:             CCPR = map(ADRESH, 0, 255, 30, 64);
   990  0F01  01A5               	clrf	map@x0^(0+128)
   991  0F02  30FF               	movlw	255
   992  0F03  00AB               	movwf	??_isr^(0+128)
   993  0F04  082B               	movf	??_isr^(0+128),w
   994  0F05  00A6               	movwf	map@x1^(0+128)
   995  0F06  301E               	movlw	30
   996  0F07  00A7               	movwf	map@y0^(0+128)
   997  0F08  3000               	movlw	0
   998  0F09  00A8               	movwf	(map@y0^(0+128)+1)
   999  0F0A  3040               	movlw	64
  1000  0F0B  00A9               	movwf	map@y1^(0+128)
  1001  0F0C  3000               	movlw	0
  1002  0F0D  00AA               	movwf	(map@y1^(0+128)+1)
  1003  0F0E  1283               	bcf	3,5	;RP0=0, select bank0
  1004  0F0F  1303               	bcf	3,6	;RP1=0, select bank0
  1005  0F10  081E               	movf	30,w	;volatile
  1006  0F11  120A  158A  2584  120A  158A  	fcall	_map
  1007  0F16  1683               	bsf	3,5	;RP0=1, select bank1
  1008  0F17  1303               	bcf	3,6	;RP1=0, select bank1
  1009  0F18  0826               	movf	(?_map+1)^(0+128),w
  1010  0F19  00B8               	movwf	(_CCPR+1)^(0+128)
  1011  0F1A  0825               	movf	?_map^(0+128),w
  1012  0F1B  00B7               	movwf	_CCPR^(0+128)
  1013  0F1C                     i1l2043:
  1014                           
  1015                           ;main_postLab.c: 66:             CCPR1L = (uint8_t)(CCPR>>2);
  1016  0F1C  0838               	movf	(_CCPR+1)^(0+128),w
  1017  0F1D  00AC               	movwf	(??_isr^(0+128)+1)
  1018  0F1E  0837               	movf	_CCPR^(0+128),w
  1019  0F1F  00AB               	movwf	??_isr^(0+128)
  1020  0F20  1003               	clrc
  1021  0F21  0CAC               	rrf	(??_isr^(0+128)+1),f
  1022  0F22  0CAB               	rrf	??_isr^(0+128),f
  1023  0F23  1003               	clrc
  1024  0F24  0CAC               	rrf	(??_isr^(0+128)+1),f
  1025  0F25  0CAB               	rrf	??_isr^(0+128),f
  1026  0F26  082B               	movf	??_isr^(0+128),w
  1027  0F27  1283               	bcf	3,5	;RP0=0, select bank0
  1028  0F28  1303               	bcf	3,6	;RP1=0, select bank0
  1029  0F29  0095               	movwf	21	;volatile
  1030  0F2A                     i1l2045:
  1031                           
  1032                           ;main_postLab.c: 67:             CCP1CONbits.DC1B = CCPR & 0b11;
  1033  0F2A  1683               	bsf	3,5	;RP0=1, select bank1
  1034  0F2B  1303               	bcf	3,6	;RP1=0, select bank1
  1035  0F2C  0837               	movf	_CCPR^(0+128),w
  1036  0F2D  3903               	andlw	3
  1037  0F2E  00AB               	movwf	??_isr^(0+128)
  1038  0F2F  0EAB               	swapf	??_isr^(0+128),f
  1039  0F30  1283               	bcf	3,5	;RP0=0, select bank0
  1040  0F31  1303               	bcf	3,6	;RP1=0, select bank0
  1041  0F32  0817               	movf	23,w	;volatile
  1042  0F33  1683               	bsf	3,5	;RP0=1, select bank1
  1043  0F34  1303               	bcf	3,6	;RP1=0, select bank1
  1044  0F35  062B               	xorwf	??_isr^(0+128),w
  1045  0F36  39CF               	andlw	-49
  1046  0F37  062B               	xorwf	??_isr^(0+128),w
  1047  0F38  1283               	bcf	3,5	;RP0=0, select bank0
  1048  0F39  1303               	bcf	3,6	;RP1=0, select bank0
  1049  0F3A  0097               	movwf	23	;volatile
  1050                           
  1051                           ;main_postLab.c: 68:         }
  1052  0F3B  2FC4               	goto	i1l2063
  1053  0F3C                     i1l2047:
  1054  0F3C  1283               	bcf	3,5	;RP0=0, select bank0
  1055  0F3D  1303               	bcf	3,6	;RP1=0, select bank0
  1056  0F3E  0C1F               	rrf	31,w	;volatile
  1057  0F3F  1683               	bsf	3,5	;RP0=1, select bank1
  1058  0F40  1303               	bcf	3,6	;RP1=0, select bank1
  1059  0F41  00AB               	movwf	??_isr^(0+128)
  1060  0F42  0C2B               	rrf	??_isr^(0+128),w
  1061  0F43  390F               	andlw	15
  1062  0F44  3A01               	xorlw	1
  1063  0F45  1D03               	skipz
  1064  0F46  2F48               	goto	u294_21
  1065  0F47  2F49               	goto	u294_20
  1066  0F48                     u294_21:
  1067  0F48  2F96               	goto	i1l2057
  1068  0F49                     u294_20:
  1069  0F49                     i1l2049:
  1070                           
  1071                           ;main_postLab.c: 70:             CCPR_2 = map(ADRESH, 0, 255, 30, 64);
  1072  0F49  01A5               	clrf	map@x0^(0+128)
  1073  0F4A  30FF               	movlw	255
  1074  0F4B  00AB               	movwf	??_isr^(0+128)
  1075  0F4C  082B               	movf	??_isr^(0+128),w
  1076  0F4D  00A6               	movwf	map@x1^(0+128)
  1077  0F4E  301E               	movlw	30
  1078  0F4F  00A7               	movwf	map@y0^(0+128)
  1079  0F50  3000               	movlw	0
  1080  0F51  00A8               	movwf	(map@y0^(0+128)+1)
  1081  0F52  3040               	movlw	64
  1082  0F53  00A9               	movwf	map@y1^(0+128)
  1083  0F54  3000               	movlw	0
  1084  0F55  00AA               	movwf	(map@y1^(0+128)+1)
  1085  0F56  1283               	bcf	3,5	;RP0=0, select bank0
  1086  0F57  1303               	bcf	3,6	;RP1=0, select bank0
  1087  0F58  081E               	movf	30,w	;volatile
  1088  0F59  120A  158A  2584  120A  158A  	fcall	_map
  1089  0F5E  1683               	bsf	3,5	;RP0=1, select bank1
  1090  0F5F  1303               	bcf	3,6	;RP1=0, select bank1
  1091  0F60  0826               	movf	(?_map+1)^(0+128),w
  1092  0F61  00B6               	movwf	(_CCPR_2+1)^(0+128)
  1093  0F62  0825               	movf	?_map^(0+128),w
  1094  0F63  00B5               	movwf	_CCPR_2^(0+128)
  1095  0F64                     i1l2051:
  1096                           
  1097                           ;main_postLab.c: 71:             CCPR2L = (uint8_t)(CCPR_2>>2);
  1098  0F64  0836               	movf	(_CCPR_2+1)^(0+128),w
  1099  0F65  00AC               	movwf	(??_isr^(0+128)+1)
  1100  0F66  0835               	movf	_CCPR_2^(0+128),w
  1101  0F67  00AB               	movwf	??_isr^(0+128)
  1102  0F68  1003               	clrc
  1103  0F69  0CAC               	rrf	(??_isr^(0+128)+1),f
  1104  0F6A  0CAB               	rrf	??_isr^(0+128),f
  1105  0F6B  1003               	clrc
  1106  0F6C  0CAC               	rrf	(??_isr^(0+128)+1),f
  1107  0F6D  0CAB               	rrf	??_isr^(0+128),f
  1108  0F6E  082B               	movf	??_isr^(0+128),w
  1109  0F6F  1283               	bcf	3,5	;RP0=0, select bank0
  1110  0F70  1303               	bcf	3,6	;RP1=0, select bank0
  1111  0F71  009B               	movwf	27	;volatile
  1112  0F72                     i1l2053:
  1113                           
  1114                           ;main_postLab.c: 72:             CCP2CONbits.DC2B0 = CCPR_2 & 0b01;
  1115  0F72  1683               	bsf	3,5	;RP0=1, select bank1
  1116  0F73  1303               	bcf	3,6	;RP1=0, select bank1
  1117  0F74  0835               	movf	_CCPR_2^(0+128),w
  1118  0F75  3901               	andlw	1
  1119  0F76  00AB               	movwf	??_isr^(0+128)
  1120  0F77  0EAB               	swapf	??_isr^(0+128),f
  1121  0F78  1283               	bcf	3,5	;RP0=0, select bank0
  1122  0F79  1303               	bcf	3,6	;RP1=0, select bank0
  1123  0F7A  081D               	movf	29,w	;volatile
  1124  0F7B  1683               	bsf	3,5	;RP0=1, select bank1
  1125  0F7C  1303               	bcf	3,6	;RP1=0, select bank1
  1126  0F7D  062B               	xorwf	??_isr^(0+128),w
  1127  0F7E  39EF               	andlw	-17
  1128  0F7F  062B               	xorwf	??_isr^(0+128),w
  1129  0F80  1283               	bcf	3,5	;RP0=0, select bank0
  1130  0F81  1303               	bcf	3,6	;RP1=0, select bank0
  1131  0F82  009D               	movwf	29	;volatile
  1132  0F83                     i1l2055:
  1133                           
  1134                           ;main_postLab.c: 73:             CCP2CONbits.DC2B1 = CCPR_2 & 0b10;
  1135  0F83  1683               	bsf	3,5	;RP0=1, select bank1
  1136  0F84  1303               	bcf	3,6	;RP1=0, select bank1
  1137  0F85  0835               	movf	_CCPR_2^(0+128),w
  1138  0F86  3902               	andlw	2
  1139  0F87  00AB               	movwf	??_isr^(0+128)
  1140  0F88  0EAB               	swapf	??_isr^(0+128),f
  1141  0F89  0DAB               	rlf	??_isr^(0+128),f
  1142  0F8A  1283               	bcf	3,5	;RP0=0, select bank0
  1143  0F8B  1303               	bcf	3,6	;RP1=0, select bank0
  1144  0F8C  081D               	movf	29,w	;volatile
  1145  0F8D  1683               	bsf	3,5	;RP0=1, select bank1
  1146  0F8E  1303               	bcf	3,6	;RP1=0, select bank1
  1147  0F8F  062B               	xorwf	??_isr^(0+128),w
  1148  0F90  39DF               	andlw	-33
  1149  0F91  062B               	xorwf	??_isr^(0+128),w
  1150  0F92  1283               	bcf	3,5	;RP0=0, select bank0
  1151  0F93  1303               	bcf	3,6	;RP1=0, select bank0
  1152  0F94  009D               	movwf	29	;volatile
  1153                           
  1154                           ;main_postLab.c: 74:         }
  1155  0F95  2FC4               	goto	i1l2063
  1156  0F96                     i1l2057:
  1157  0F96  1283               	bcf	3,5	;RP0=0, select bank0
  1158  0F97  1303               	bcf	3,6	;RP1=0, select bank0
  1159  0F98  0C1F               	rrf	31,w	;volatile
  1160  0F99  1683               	bsf	3,5	;RP0=1, select bank1
  1161  0F9A  1303               	bcf	3,6	;RP1=0, select bank1
  1162  0F9B  00AB               	movwf	??_isr^(0+128)
  1163  0F9C  0C2B               	rrf	??_isr^(0+128),w
  1164  0F9D  390F               	andlw	15
  1165  0F9E  3A02               	xorlw	2
  1166  0F9F  1D03               	skipz
  1167  0FA0  2FA2               	goto	u295_21
  1168  0FA1  2FA3               	goto	u295_20
  1169  0FA2                     u295_21:
  1170  0FA2  2FC4               	goto	i1l2063
  1171  0FA3                     u295_20:
  1172  0FA3                     i1l2059:
  1173                           
  1174                           ;main_postLab.c: 76:             PORTD = map(ADRESH, 0, 255, 1, 9);;
  1175  0FA3  01A5               	clrf	map@x0^(0+128)
  1176  0FA4  30FF               	movlw	255
  1177  0FA5  00AB               	movwf	??_isr^(0+128)
  1178  0FA6  082B               	movf	??_isr^(0+128),w
  1179  0FA7  00A6               	movwf	map@x1^(0+128)
  1180  0FA8  3001               	movlw	1
  1181  0FA9  00A7               	movwf	map@y0^(0+128)
  1182  0FAA  3000               	movlw	0
  1183  0FAB  00A8               	movwf	(map@y0^(0+128)+1)
  1184  0FAC  3009               	movlw	9
  1185  0FAD  00A9               	movwf	map@y1^(0+128)
  1186  0FAE  3000               	movlw	0
  1187  0FAF  00AA               	movwf	(map@y1^(0+128)+1)
  1188  0FB0  1283               	bcf	3,5	;RP0=0, select bank0
  1189  0FB1  1303               	bcf	3,6	;RP1=0, select bank0
  1190  0FB2  081E               	movf	30,w	;volatile
  1191  0FB3  120A  158A  2584  120A  158A  	fcall	_map
  1192  0FB8  1683               	bsf	3,5	;RP0=1, select bank1
  1193  0FB9  1303               	bcf	3,6	;RP1=0, select bank1
  1194  0FBA  0825               	movf	?_map^(0+128),w
  1195  0FBB  1283               	bcf	3,5	;RP0=0, select bank0
  1196  0FBC  1303               	bcf	3,6	;RP1=0, select bank0
  1197  0FBD  0088               	movwf	8	;volatile
  1198  0FBE                     i1l2061:
  1199                           
  1200                           ;main_postLab.c: 77:             pulse_w = 2;
  1201  0FBE  3002               	movlw	2
  1202  0FBF  1683               	bsf	3,5	;RP0=1, select bank1
  1203  0FC0  1303               	bcf	3,6	;RP1=0, select bank1
  1204  0FC1  00B1               	movwf	_pulse_w^(0+128)
  1205  0FC2  3000               	movlw	0
  1206  0FC3  00B2               	movwf	(_pulse_w^(0+128)+1)
  1207  0FC4                     i1l2063:
  1208                           
  1209                           ;main_postLab.c: 79:         PIR1bits.ADIF = 0;
  1210  0FC4  1283               	bcf	3,5	;RP0=0, select bank0
  1211  0FC5  130C               	bcf	12,6	;volatile
  1212  0FC6                     i1l2065:
  1213                           
  1214                           ;main_postLab.c: 81:      if (INTCONbits.T0IF){
  1215  0FC6  1D0B               	btfss	11,2	;volatile
  1216  0FC7  2FC9               	goto	u296_21
  1217  0FC8  2FCA               	goto	u296_20
  1218  0FC9                     u296_21:
  1219  0FC9  2FF5               	goto	i1l77
  1220  0FCA                     u296_20:
  1221  0FCA                     i1l2067:
  1222                           
  1223                           ;main_postLab.c: 82:        cont_tmr0++;
  1224  0FCA  3001               	movlw	1
  1225  0FCB  1683               	bsf	3,5	;RP0=1, select bank1
  1226  0FCC  1303               	bcf	3,6	;RP1=0, select bank1
  1227  0FCD  07B3               	addwf	_cont_tmr0^(0+128),f
  1228  0FCE  1803               	skipnc
  1229  0FCF  0AB4               	incf	(_cont_tmr0+1)^(0+128),f
  1230  0FD0  3000               	movlw	0
  1231  0FD1  07B4               	addwf	(_cont_tmr0+1)^(0+128),f
  1232                           
  1233                           ;main_postLab.c: 83:        TMR0 = 255;
  1234  0FD2  30FF               	movlw	255
  1235  0FD3  1283               	bcf	3,5	;RP0=0, select bank0
  1236  0FD4  1303               	bcf	3,6	;RP1=0, select bank0
  1237  0FD5  0081               	movwf	1	;volatile
  1238  0FD6                     i1l2069:
  1239                           
  1240                           ;main_postLab.c: 84:        INTCONbits.T0IF = 0;
  1241  0FD6  110B               	bcf	11,2	;volatile
  1242                           
  1243                           ;main_postLab.c: 85:        if (cont_tmr0 == pulse_w) {
  1244  0FD7  1683               	bsf	3,5	;RP0=1, select bank1
  1245  0FD8  1303               	bcf	3,6	;RP1=0, select bank1
  1246  0FD9  0832               	movf	(_pulse_w+1)^(0+128),w
  1247  0FDA  0634               	xorwf	(_cont_tmr0+1)^(0+128),w
  1248  0FDB  1D03               	skipz
  1249  0FDC  2FDF               	goto	u297_25
  1250  0FDD  0831               	movf	_pulse_w^(0+128),w
  1251  0FDE  0633               	xorwf	_cont_tmr0^(0+128),w
  1252  0FDF                     u297_25:
  1253  0FDF  1D03               	skipz
  1254  0FE0  2FE2               	goto	u297_21
  1255  0FE1  2FE3               	goto	u297_20
  1256  0FE2                     u297_21:
  1257  0FE2  2FE7               	goto	i1l2073
  1258  0FE3                     u297_20:
  1259  0FE3                     i1l2071:
  1260                           
  1261                           ;main_postLab.c: 86:            PORTCbits.RC3 = 0;
  1262  0FE3  1283               	bcf	3,5	;RP0=0, select bank0
  1263  0FE4  1303               	bcf	3,6	;RP1=0, select bank0
  1264  0FE5  1187               	bcf	7,3	;volatile
  1265                           
  1266                           ;main_postLab.c: 87:            return;
  1267  0FE6  2FF5               	goto	i1l77
  1268  0FE7                     i1l2073:
  1269                           
  1270                           ;main_postLab.c: 89:        if (cont_tmr0 == 10) {
  1271  0FE7  300A               	movlw	10
  1272  0FE8  0633               	xorwf	_cont_tmr0^(0+128),w
  1273  0FE9  0434               	iorwf	(_cont_tmr0+1)^(0+128),w
  1274  0FEA  1D03               	btfss	3,2
  1275  0FEB  2FED               	goto	u298_21
  1276  0FEC  2FEE               	goto	u298_20
  1277  0FED                     u298_21:
  1278  0FED  2FF5               	goto	i1l77
  1279  0FEE                     u298_20:
  1280  0FEE                     i1l2075:
  1281                           
  1282                           ;main_postLab.c: 90:         PORTCbits.RC3 = 1;
  1283  0FEE  1283               	bcf	3,5	;RP0=0, select bank0
  1284  0FEF  1303               	bcf	3,6	;RP1=0, select bank0
  1285  0FF0  1587               	bsf	7,3	;volatile
  1286  0FF1                     i1l2077:
  1287                           
  1288                           ;main_postLab.c: 91:         cont_tmr0 = 0;
  1289  0FF1  1683               	bsf	3,5	;RP0=1, select bank1
  1290  0FF2  1303               	bcf	3,6	;RP1=0, select bank1
  1291  0FF3  01B3               	clrf	_cont_tmr0^(0+128)
  1292  0FF4  01B4               	clrf	(_cont_tmr0+1)^(0+128)
  1293  0FF5                     i1l77:
  1294  0FF5  1683               	bsf	3,5	;RP0=1, select bank1
  1295  0FF6  1303               	bcf	3,6	;RP1=0, select bank1
  1296  0FF7  082F               	movf	(??_isr+4)^(0+128),w
  1297  0FF8  00FF               	movwf	btemp+1
  1298  0FF9  082E               	movf	(??_isr+3)^(0+128),w
  1299  0FFA  008A               	movwf	10
  1300  0FFB  0E2D               	swapf	(??_isr+2)^(0+128),w
  1301  0FFC  0083               	movwf	3
  1302  0FFD  0EFE               	swapf	btemp,f
  1303  0FFE  0E7E               	swapf	btemp,w
  1304  0FFF  0009               	retfie
  1305  1000                     __end_of_isr:
  1306                           
  1307                           	psect	intentry
  1308  0004                     __pintentry:	
  1309                           ;incstack = 0
  1310                           ; Regs used in _isr: [wreg+status,2+status,0+btemp+1+pclath+cstack]
  1311                           
  1312  0004                     interrupt_function:
  1313  007E                     saved_w	set	btemp
  1314  0004  00FE               	movwf	btemp
  1315  0005  0E03               	swapf	3,w
  1316  0006  1683               	bsf	3,5	;RP0=1, select bank1
  1317  0007  1303               	bcf	3,6	;RP1=0, select bank1
  1318  0008  00AD               	movwf	(??_isr+2)^(0+128)
  1319  0009  080A               	movf	10,w
  1320  000A  00AE               	movwf	(??_isr+3)^(0+128)
  1321  000B  087F               	movf	btemp+1,w
  1322  000C  00AF               	movwf	(??_isr+4)^(0+128)
  1323  000D  120A  158A  2EF0   	ljmp	_isr
  1324                           
  1325                           	psect	text3
  1326  0D84                     __ptext3:	
  1327 ;; *************** function _map *****************
  1328 ;; Defined at:
  1329 ;;		line 195 in file "main_postLab.c"
  1330 ;; Parameters:    Size  Location     Type
  1331 ;;  x               1    wreg     unsigned char 
  1332 ;;  x0              1    5[BANK1 ] unsigned char 
  1333 ;;  x1              1    6[BANK1 ] unsigned char 
  1334 ;;  y0              2    7[BANK1 ] unsigned short 
  1335 ;;  y1              2    9[BANK1 ] unsigned short 
  1336 ;; Auto vars:     Size  Location     Type
  1337 ;;  x               1   78[BANK0 ] unsigned char 
  1338 ;; Return value:  Size  Location     Type
  1339 ;;                  2    5[BANK1 ] unsigned short 
  1340 ;; Registers used:
  1341 ;;		wreg, status,2, status,0, btemp+1, pclath, cstack
  1342 ;; Tracked objects:
  1343 ;;		On entry : 0/0
  1344 ;;		On exit  : 0/0
  1345 ;;		Unchanged: 0/0
  1346 ;; Data sizes:     COMMON   BANK0   BANK1   BANK3   BANK2
  1347 ;;      Params:         0       0       6       0       0
  1348 ;;      Locals:         0       1       0       0       0
  1349 ;;      Temps:          0       0       0       0       0
  1350 ;;      Totals:         0       1       6       0       0
  1351 ;;Total ram usage:        7 bytes
  1352 ;; Hardware stack levels used: 1
  1353 ;; Hardware stack levels required when called: 2
  1354 ;; This function calls:
  1355 ;;		___fladd
  1356 ;;		___fldiv
  1357 ;;		___flmul
  1358 ;;		___fltol
  1359 ;;		___xxtofl
  1360 ;; This function is called by:
  1361 ;;		_isr
  1362 ;; This function uses a non-reentrant model
  1363 ;;
  1364                           
  1365  0D84                     _map:	
  1366                           ;psect for function _map
  1367                           
  1368                           
  1369                           ;incstack = 0
  1370                           ; Regs used in _map: [wreg+status,2+status,0+btemp+1+pclath+cstack]
  1371                           ;map@x stored from wreg
  1372  0D84  1283               	bcf	3,5	;RP0=0, select bank0
  1373  0D85  1303               	bcf	3,6	;RP1=0, select bank0
  1374  0D86  00EE               	movwf	map@x
  1375  0D87                     i1l1967:
  1376                           
  1377                           ;main_postLab.c: 195: unsigned short map(uint8_t x, uint8_t x0, uint8_t x1,;main_postLab
      +                          .c: 196:             unsigned short y0, unsigned short y1){;main_postLab.c: 197:     ret
      +                          urn (unsigned short)(y0+((float)(y1-y0)/(x1-x0))*(x-x0));
  1378  0D87  1683               	bsf	3,5	;RP0=1, select bank1
  1379  0D88  1303               	bcf	3,6	;RP1=0, select bank1
  1380  0D89  0827               	movf	map@y0^(0+128),w
  1381  0D8A  00F0               	movwf	___xxtofl@val
  1382  0D8B  0828               	movf	(map@y0+1)^(0+128),w
  1383  0D8C  00F1               	movwf	___xxtofl@val+1
  1384  0D8D  01F2               	clrf	___xxtofl@val+2
  1385  0D8E  01F3               	clrf	___xxtofl@val+3
  1386  0D8F  3000               	movlw	0
  1387  0D90  120A  158A  2636  120A  158A  	fcall	___xxtofl
  1388  0D95  0873               	movf	?___xxtofl+3,w
  1389  0D96  1283               	bcf	3,5	;RP0=0, select bank0
  1390  0D97  1303               	bcf	3,6	;RP1=0, select bank0
  1391  0D98  00DB               	movwf	___fladd@a+3
  1392  0D99  0872               	movf	?___xxtofl+2,w
  1393  0D9A  00DA               	movwf	___fladd@a+2
  1394  0D9B  0871               	movf	?___xxtofl+1,w
  1395  0D9C  00D9               	movwf	___fladd@a+1
  1396  0D9D  0870               	movf	?___xxtofl,w
  1397  0D9E  00D8               	movwf	___fladd@a
  1398  0D9F  1683               	bsf	3,5	;RP0=1, select bank1
  1399  0DA0  1303               	bcf	3,6	;RP1=0, select bank1
  1400  0DA1  0827               	movf	map@y0^(0+128),w
  1401  0DA2  0229               	subwf	map@y1^(0+128),w
  1402  0DA3  00F0               	movwf	___xxtofl@val
  1403  0DA4  0828               	movf	(map@y0+1)^(0+128),w
  1404  0DA5  1C03               	skipc
  1405  0DA6  0A28               	incf	(map@y0+1)^(0+128),w
  1406  0DA7  022A               	subwf	(map@y1+1)^(0+128),w
  1407  0DA8  00F1               	movwf	___xxtofl@val+1
  1408  0DA9  01F2               	clrf	___xxtofl@val+2
  1409  0DAA  01F3               	clrf	___xxtofl@val+3
  1410  0DAB  3000               	movlw	0
  1411  0DAC  120A  158A  2636  120A  158A  	fcall	___xxtofl
  1412  0DB1  0873               	movf	?___xxtofl+3,w
  1413  0DB2  1283               	bcf	3,5	;RP0=0, select bank0
  1414  0DB3  1303               	bcf	3,6	;RP1=0, select bank0
  1415  0DB4  00A7               	movwf	___fldiv@b+3
  1416  0DB5  0872               	movf	?___xxtofl+2,w
  1417  0DB6  00A6               	movwf	___fldiv@b+2
  1418  0DB7  0871               	movf	?___xxtofl+1,w
  1419  0DB8  00A5               	movwf	___fldiv@b+1
  1420  0DB9  0870               	movf	?___xxtofl,w
  1421  0DBA  00A4               	movwf	___fldiv@b
  1422  0DBB  1683               	bsf	3,5	;RP0=1, select bank1
  1423  0DBC  1303               	bcf	3,6	;RP1=0, select bank1
  1424  0DBD  0825               	movf	map@x0^(0+128),w
  1425  0DBE  0226               	subwf	map@x1^(0+128),w
  1426  0DBF  00F0               	movwf	___xxtofl@val
  1427  0DC0  01F1               	clrf	___xxtofl@val+1
  1428  0DC1  1C03               	skipc
  1429  0DC2  03F1               	decf	___xxtofl@val+1,f
  1430  0DC3  01F2               	clrf	___xxtofl@val+2
  1431  0DC4  1BF1               	btfsc	___xxtofl@val+1,7
  1432  0DC5  03F2               	decf	___xxtofl@val+2,f
  1433  0DC6  0872               	movf	___xxtofl@val+2,w
  1434  0DC7  00F3               	movwf	___xxtofl@val+3
  1435  0DC8  3001               	movlw	1
  1436  0DC9  120A  158A  2636  120A  158A  	fcall	___xxtofl
  1437  0DCE  0873               	movf	?___xxtofl+3,w
  1438  0DCF  1283               	bcf	3,5	;RP0=0, select bank0
  1439  0DD0  1303               	bcf	3,6	;RP1=0, select bank0
  1440  0DD1  00A3               	movwf	___fldiv@a+3
  1441  0DD2  0872               	movf	?___xxtofl+2,w
  1442  0DD3  00A2               	movwf	___fldiv@a+2
  1443  0DD4  0871               	movf	?___xxtofl+1,w
  1444  0DD5  00A1               	movwf	___fldiv@a+1
  1445  0DD6  0870               	movf	?___xxtofl,w
  1446  0DD7  00A0               	movwf	___fldiv@a
  1447  0DD8  120A  118A  260A  120A  158A  	fcall	___fldiv
  1448  0DDD  1283               	bcf	3,5	;RP0=0, select bank0
  1449  0DDE  1303               	bcf	3,6	;RP1=0, select bank0
  1450  0DDF  0823               	movf	?___fldiv+3,w
  1451  0DE0  00C1               	movwf	___flmul@a+3
  1452  0DE1  0822               	movf	?___fldiv+2,w
  1453  0DE2  00C0               	movwf	___flmul@a+2
  1454  0DE3  0821               	movf	?___fldiv+1,w
  1455  0DE4  00BF               	movwf	___flmul@a+1
  1456  0DE5  0820               	movf	?___fldiv,w
  1457  0DE6  00BE               	movwf	___flmul@a
  1458  0DE7  1683               	bsf	3,5	;RP0=1, select bank1
  1459  0DE8  1303               	bcf	3,6	;RP1=0, select bank1
  1460  0DE9  0825               	movf	map@x0^(0+128),w
  1461  0DEA  1283               	bcf	3,5	;RP0=0, select bank0
  1462  0DEB  1303               	bcf	3,6	;RP1=0, select bank0
  1463  0DEC  026E               	subwf	map@x,w
  1464  0DED  00F0               	movwf	___xxtofl@val
  1465  0DEE  01F1               	clrf	___xxtofl@val+1
  1466  0DEF  1C03               	skipc
  1467  0DF0  03F1               	decf	___xxtofl@val+1,f
  1468  0DF1  01F2               	clrf	___xxtofl@val+2
  1469  0DF2  1BF1               	btfsc	___xxtofl@val+1,7
  1470  0DF3  03F2               	decf	___xxtofl@val+2,f
  1471  0DF4  0872               	movf	___xxtofl@val+2,w
  1472  0DF5  00F3               	movwf	___xxtofl@val+3
  1473  0DF6  3001               	movlw	1
  1474  0DF7  120A  158A  2636  120A  158A  	fcall	___xxtofl
  1475  0DFC  0873               	movf	?___xxtofl+3,w
  1476  0DFD  1283               	bcf	3,5	;RP0=0, select bank0
  1477  0DFE  1303               	bcf	3,6	;RP1=0, select bank0
  1478  0DFF  00BD               	movwf	___flmul@b+3
  1479  0E00  0872               	movf	?___xxtofl+2,w
  1480  0E01  00BC               	movwf	___flmul@b+2
  1481  0E02  0871               	movf	?___xxtofl+1,w
  1482  0E03  00BB               	movwf	___flmul@b+1
  1483  0E04  0870               	movf	?___xxtofl,w
  1484  0E05  00BA               	movwf	___flmul@b
  1485  0E06  120A  118A  2021  120A  158A  	fcall	___flmul
  1486  0E0B  1283               	bcf	3,5	;RP0=0, select bank0
  1487  0E0C  1303               	bcf	3,6	;RP1=0, select bank0
  1488  0E0D  083D               	movf	?___flmul+3,w
  1489  0E0E  00D7               	movwf	___fladd@b+3
  1490  0E0F  083C               	movf	?___flmul+2,w
  1491  0E10  00D6               	movwf	___fladd@b+2
  1492  0E11  083B               	movf	?___flmul+1,w
  1493  0E12  00D5               	movwf	___fladd@b+1
  1494  0E13  083A               	movf	?___flmul,w
  1495  0E14  00D4               	movwf	___fladd@b
  1496  0E15  120A  118A  2382  120A  158A  	fcall	___fladd
  1497  0E1A  1283               	bcf	3,5	;RP0=0, select bank0
  1498  0E1B  1303               	bcf	3,6	;RP1=0, select bank0
  1499  0E1C  0857               	movf	?___fladd+3,w
  1500  0E1D  00EB               	movwf	___fltol@f1+3
  1501  0E1E  0856               	movf	?___fladd+2,w
  1502  0E1F  00EA               	movwf	___fltol@f1+2
  1503  0E20  0855               	movf	?___fladd+1,w
  1504  0E21  00E9               	movwf	___fltol@f1+1
  1505  0E22  0854               	movf	?___fladd,w
  1506  0E23  00E8               	movwf	___fltol@f1
  1507  0E24  120A  158A  24E8  120A  158A  	fcall	___fltol
  1508  0E29  1283               	bcf	3,5	;RP0=0, select bank0
  1509  0E2A  1303               	bcf	3,6	;RP1=0, select bank0
  1510  0E2B  0869               	movf	?___fltol+1,w
  1511  0E2C  1683               	bsf	3,5	;RP0=1, select bank1
  1512  0E2D  1303               	bcf	3,6	;RP1=0, select bank1
  1513  0E2E  00A6               	movwf	(?_map+1)^(0+128)
  1514  0E2F  1283               	bcf	3,5	;RP0=0, select bank0
  1515  0E30  1303               	bcf	3,6	;RP1=0, select bank0
  1516  0E31  0868               	movf	?___fltol,w
  1517  0E32  1683               	bsf	3,5	;RP0=1, select bank1
  1518  0E33  1303               	bcf	3,6	;RP1=0, select bank1
  1519  0E34  00A5               	movwf	?_map^(0+128)
  1520  0E35                     i1l101:
  1521  0E35  0008               	return
  1522  0E36                     __end_of_map:
  1523                           
  1524                           	psect	text4
  1525  0E36                     __ptext4:	
  1526 ;; *************** function ___xxtofl *****************
  1527 ;; Defined at:
  1528 ;;		line 10 in file "C:\Program Files\Microchip\xc8\v2.35\pic\sources\c90\common\xxtofl.c"
  1529 ;; Parameters:    Size  Location     Type
  1530 ;;  sign            1    wreg     unsigned char 
  1531 ;;  val             4    0[COMMON] long 
  1532 ;; Auto vars:     Size  Location     Type
  1533 ;;  sign            1    8[COMMON] unsigned char 
  1534 ;;  arg             4   10[COMMON] unsigned long 
  1535 ;;  exp             1    9[COMMON] unsigned char 
  1536 ;; Return value:  Size  Location     Type
  1537 ;;                  4    0[COMMON] unsigned char 
  1538 ;; Registers used:
  1539 ;;		wreg, status,2, status,0
  1540 ;; Tracked objects:
  1541 ;;		On entry : 0/0
  1542 ;;		On exit  : 0/0
  1543 ;;		Unchanged: 0/0
  1544 ;; Data sizes:     COMMON   BANK0   BANK1   BANK3   BANK2
  1545 ;;      Params:         4       0       0       0       0
  1546 ;;      Locals:         6       0       0       0       0
  1547 ;;      Temps:          4       0       0       0       0
  1548 ;;      Totals:        14       0       0       0       0
  1549 ;;Total ram usage:       14 bytes
  1550 ;; Hardware stack levels used: 1
  1551 ;; This function calls:
  1552 ;;		Nothing
  1553 ;; This function is called by:
  1554 ;;		_map
  1555 ;; This function uses a non-reentrant model
  1556 ;;
  1557                           
  1558  0E36                     ___xxtofl:	
  1559                           ;psect for function ___xxtofl
  1560                           
  1561                           
  1562                           ;incstack = 0
  1563                           ; Regs used in ___xxtofl: [wreg+status,2+status,0]
  1564                           ;___xxtofl@sign stored from wreg
  1565  0E36  00F8               	movwf	___xxtofl@sign
  1566  0E37                     i1l1923:
  1567  0E37  0878               	movf	___xxtofl@sign,w
  1568  0E38  1903               	btfsc	3,2
  1569  0E39  2E3B               	goto	u277_21
  1570  0E3A  2E3C               	goto	u277_20
  1571  0E3B                     u277_21:
  1572  0E3B  2E50               	goto	i1l1929
  1573  0E3C                     u277_20:
  1574  0E3C                     i1l1925:
  1575  0E3C  1FF3               	btfss	___xxtofl@val+3,7
  1576  0E3D  2E3F               	goto	u278_21
  1577  0E3E  2E40               	goto	u278_20
  1578  0E3F                     u278_21:
  1579  0E3F  2E50               	goto	i1l1929
  1580  0E40                     u278_20:
  1581  0E40                     i1l1927:
  1582  0E40  0970               	comf	___xxtofl@val,w
  1583  0E41  00FA               	movwf	___xxtofl@arg
  1584  0E42  0971               	comf	___xxtofl@val+1,w
  1585  0E43  00FB               	movwf	___xxtofl@arg+1
  1586  0E44  0972               	comf	___xxtofl@val+2,w
  1587  0E45  00FC               	movwf	___xxtofl@arg+2
  1588  0E46  0973               	comf	___xxtofl@val+3,w
  1589  0E47  00FD               	movwf	___xxtofl@arg+3
  1590  0E48  0AFA               	incf	___xxtofl@arg,f
  1591  0E49  1903               	skipnz
  1592  0E4A  0AFB               	incf	___xxtofl@arg+1,f
  1593  0E4B  1903               	skipnz
  1594  0E4C  0AFC               	incf	___xxtofl@arg+2,f
  1595  0E4D  1903               	skipnz
  1596  0E4E  0AFD               	incf	___xxtofl@arg+3,f
  1597  0E4F  2E58               	goto	i1l620
  1598  0E50                     i1l1929:
  1599  0E50  0873               	movf	___xxtofl@val+3,w
  1600  0E51  00FD               	movwf	___xxtofl@arg+3
  1601  0E52  0872               	movf	___xxtofl@val+2,w
  1602  0E53  00FC               	movwf	___xxtofl@arg+2
  1603  0E54  0871               	movf	___xxtofl@val+1,w
  1604  0E55  00FB               	movwf	___xxtofl@arg+1
  1605  0E56  0870               	movf	___xxtofl@val,w
  1606  0E57  00FA               	movwf	___xxtofl@arg
  1607  0E58                     i1l620:
  1608  0E58  0873               	movf	___xxtofl@val+3,w
  1609  0E59  0472               	iorwf	___xxtofl@val+2,w
  1610  0E5A  0471               	iorwf	___xxtofl@val+1,w
  1611  0E5B  0470               	iorwf	___xxtofl@val,w
  1612  0E5C  1D03               	skipz
  1613  0E5D  2E5F               	goto	u279_21
  1614  0E5E  2E60               	goto	u279_20
  1615  0E5F                     u279_21:
  1616  0E5F  2E69               	goto	i1l1935
  1617  0E60                     u279_20:
  1618  0E60                     i1l1931:
  1619  0E60  3000               	movlw	0
  1620  0E61  00F3               	movwf	?___xxtofl+3
  1621  0E62  3000               	movlw	0
  1622  0E63  00F2               	movwf	?___xxtofl+2
  1623  0E64  3000               	movlw	0
  1624  0E65  00F1               	movwf	?___xxtofl+1
  1625  0E66  3000               	movlw	0
  1626  0E67  00F0               	movwf	?___xxtofl
  1627  0E68  2EEF               	goto	i1l622
  1628  0E69                     i1l1935:
  1629  0E69  3096               	movlw	150
  1630  0E6A  00F4               	movwf	??___xxtofl
  1631  0E6B  0874               	movf	??___xxtofl,w
  1632  0E6C  00F9               	movwf	___xxtofl@exp
  1633  0E6D  2E7B               	goto	i1l1939
  1634  0E6E                     i1l1937:
  1635  0E6E  3001               	movlw	1
  1636  0E6F  00F4               	movwf	??___xxtofl
  1637  0E70  0874               	movf	??___xxtofl,w
  1638  0E71  07F9               	addwf	___xxtofl@exp,f
  1639  0E72  3001               	movlw	1
  1640  0E73                     u280_25:
  1641  0E73  1003               	clrc
  1642  0E74  0CFD               	rrf	___xxtofl@arg+3,f
  1643  0E75  0CFC               	rrf	___xxtofl@arg+2,f
  1644  0E76  0CFB               	rrf	___xxtofl@arg+1,f
  1645  0E77  0CFA               	rrf	___xxtofl@arg,f
  1646  0E78  3EFF               	addlw	-1
  1647  0E79  1D03               	skipz
  1648  0E7A  2E73               	goto	u280_25
  1649  0E7B                     i1l1939:
  1650  0E7B  30FE               	movlw	254
  1651  0E7C  057D               	andwf	___xxtofl@arg+3,w
  1652  0E7D  1D03               	btfss	3,2
  1653  0E7E  2E80               	goto	u281_21
  1654  0E7F  2E81               	goto	u281_20
  1655  0E80                     u281_21:
  1656  0E80  2E6E               	goto	i1l1937
  1657  0E81                     u281_20:
  1658  0E81  2E9D               	goto	i1l626
  1659  0E82                     i1l1941:
  1660  0E82  3001               	movlw	1
  1661  0E83  00F4               	movwf	??___xxtofl
  1662  0E84  0874               	movf	??___xxtofl,w
  1663  0E85  07F9               	addwf	___xxtofl@exp,f
  1664  0E86                     i1l1943:
  1665  0E86  3001               	movlw	1
  1666  0E87  07FA               	addwf	___xxtofl@arg,f
  1667  0E88  3000               	movlw	0
  1668  0E89  1803               	skipnc
  1669  0E8A  3001               	movlw	1
  1670  0E8B  07FB               	addwf	___xxtofl@arg+1,f
  1671  0E8C  3000               	movlw	0
  1672  0E8D  1803               	skipnc
  1673  0E8E  3001               	movlw	1
  1674  0E8F  07FC               	addwf	___xxtofl@arg+2,f
  1675  0E90  3000               	movlw	0
  1676  0E91  1803               	skipnc
  1677  0E92  3001               	movlw	1
  1678  0E93  07FD               	addwf	___xxtofl@arg+3,f
  1679  0E94                     i1l1945:
  1680  0E94  3001               	movlw	1
  1681  0E95                     u282_25:
  1682  0E95  1003               	clrc
  1683  0E96  0CFD               	rrf	___xxtofl@arg+3,f
  1684  0E97  0CFC               	rrf	___xxtofl@arg+2,f
  1685  0E98  0CFB               	rrf	___xxtofl@arg+1,f
  1686  0E99  0CFA               	rrf	___xxtofl@arg,f
  1687  0E9A  3EFF               	addlw	-1
  1688  0E9B  1D03               	skipz
  1689  0E9C  2E95               	goto	u282_25
  1690  0E9D                     i1l626:
  1691  0E9D  30FF               	movlw	255
  1692  0E9E  057D               	andwf	___xxtofl@arg+3,w
  1693  0E9F  1D03               	btfss	3,2
  1694  0EA0  2EA2               	goto	u283_21
  1695  0EA1  2EA3               	goto	u283_20
  1696  0EA2                     u283_21:
  1697  0EA2  2E82               	goto	i1l1941
  1698  0EA3                     u283_20:
  1699  0EA3  2EAF               	goto	i1l1949
  1700  0EA4                     i1l1947:
  1701  0EA4  3001               	movlw	1
  1702  0EA5  02F9               	subwf	___xxtofl@exp,f
  1703  0EA6  3001               	movlw	1
  1704  0EA7  00F4               	movwf	??___xxtofl
  1705  0EA8                     u284_25:
  1706  0EA8  1003               	clrc
  1707  0EA9  0DFA               	rlf	___xxtofl@arg,f
  1708  0EAA  0DFB               	rlf	___xxtofl@arg+1,f
  1709  0EAB  0DFC               	rlf	___xxtofl@arg+2,f
  1710  0EAC  0DFD               	rlf	___xxtofl@arg+3,f
  1711  0EAD  0BF4               	decfsz	??___xxtofl,f
  1712  0EAE  2EA8               	goto	u284_25
  1713  0EAF                     i1l1949:
  1714  0EAF  1BFC               	btfsc	___xxtofl@arg+2,7
  1715  0EB0  2EB2               	goto	u285_21
  1716  0EB1  2EB3               	goto	u285_20
  1717  0EB2                     u285_21:
  1718  0EB2  2EB9               	goto	i1l633
  1719  0EB3                     u285_20:
  1720  0EB3                     i1l1951:
  1721  0EB3  3002               	movlw	2
  1722  0EB4  0279               	subwf	___xxtofl@exp,w
  1723  0EB5  1803               	skipnc
  1724  0EB6  2EB8               	goto	u286_21
  1725  0EB7  2EB9               	goto	u286_20
  1726  0EB8                     u286_21:
  1727  0EB8  2EA4               	goto	i1l1947
  1728  0EB9                     u286_20:
  1729  0EB9                     i1l633:
  1730  0EB9  1879               	btfsc	___xxtofl@exp,0
  1731  0EBA  2EBC               	goto	u287_21
  1732  0EBB  2EBD               	goto	u287_20
  1733  0EBC                     u287_21:
  1734  0EBC  2EC5               	goto	i1l634
  1735  0EBD                     u287_20:
  1736  0EBD                     i1l1953:
  1737  0EBD  30FF               	movlw	255
  1738  0EBE  05FA               	andwf	___xxtofl@arg,f
  1739  0EBF  30FF               	movlw	255
  1740  0EC0  05FB               	andwf	___xxtofl@arg+1,f
  1741  0EC1  307F               	movlw	127
  1742  0EC2  05FC               	andwf	___xxtofl@arg+2,f
  1743  0EC3  30FF               	movlw	255
  1744  0EC4  05FD               	andwf	___xxtofl@arg+3,f
  1745  0EC5                     i1l634:
  1746  0EC5  1003               	clrc
  1747  0EC6  0CF9               	rrf	___xxtofl@exp,f
  1748  0EC7                     i1l1955:
  1749  0EC7  0879               	movf	___xxtofl@exp,w
  1750  0EC8  00F4               	movwf	??___xxtofl
  1751  0EC9  01F5               	clrf	??___xxtofl+1
  1752  0ECA  01F6               	clrf	??___xxtofl+2
  1753  0ECB  01F7               	clrf	??___xxtofl+3
  1754  0ECC  3018               	movlw	24
  1755  0ECD                     u288_25:
  1756  0ECD  1003               	clrc
  1757  0ECE  0DF4               	rlf	??___xxtofl,f
  1758  0ECF  0DF5               	rlf	??___xxtofl+1,f
  1759  0ED0  0DF6               	rlf	??___xxtofl+2,f
  1760  0ED1  0DF7               	rlf	??___xxtofl+3,f
  1761  0ED2                     u288_20:
  1762  0ED2  3EFF               	addlw	-1
  1763  0ED3  1D03               	skipz
  1764  0ED4  2ECD               	goto	u288_25
  1765  0ED5  0874               	movf	??___xxtofl,w
  1766  0ED6  04FA               	iorwf	___xxtofl@arg,f
  1767  0ED7  0875               	movf	??___xxtofl+1,w
  1768  0ED8  04FB               	iorwf	___xxtofl@arg+1,f
  1769  0ED9  0876               	movf	??___xxtofl+2,w
  1770  0EDA  04FC               	iorwf	___xxtofl@arg+2,f
  1771  0EDB  0877               	movf	??___xxtofl+3,w
  1772  0EDC  04FD               	iorwf	___xxtofl@arg+3,f
  1773  0EDD                     i1l1957:
  1774  0EDD  0878               	movf	___xxtofl@sign,w
  1775  0EDE  1903               	btfsc	3,2
  1776  0EDF  2EE1               	goto	u289_21
  1777  0EE0  2EE2               	goto	u289_20
  1778  0EE1                     u289_21:
  1779  0EE1  2EE7               	goto	i1l1963
  1780  0EE2                     u289_20:
  1781  0EE2                     i1l1959:
  1782  0EE2  1FF3               	btfss	___xxtofl@val+3,7
  1783  0EE3  2EE5               	goto	u290_21
  1784  0EE4  2EE6               	goto	u290_20
  1785  0EE5                     u290_21:
  1786  0EE5  2EE7               	goto	i1l1963
  1787  0EE6                     u290_20:
  1788  0EE6                     i1l1961:
  1789  0EE6  17FD               	bsf	___xxtofl@arg+3,7
  1790  0EE7                     i1l1963:
  1791  0EE7  087D               	movf	___xxtofl@arg+3,w
  1792  0EE8  00F3               	movwf	?___xxtofl+3
  1793  0EE9  087C               	movf	___xxtofl@arg+2,w
  1794  0EEA  00F2               	movwf	?___xxtofl+2
  1795  0EEB  087B               	movf	___xxtofl@arg+1,w
  1796  0EEC  00F1               	movwf	?___xxtofl+1
  1797  0EED  087A               	movf	___xxtofl@arg,w
  1798  0EEE  00F0               	movwf	?___xxtofl
  1799  0EEF                     i1l622:
  1800  0EEF  0008               	return
  1801  0EF0                     __end_of___xxtofl:
  1802                           
  1803                           	psect	text5
  1804  0CE8                     __ptext5:	
  1805 ;; *************** function ___fltol *****************
  1806 ;; Defined at:
  1807 ;;		line 43 in file "C:\Program Files\Microchip\xc8\v2.35\pic\sources\c90\common\fltol.c"
  1808 ;; Parameters:    Size  Location     Type
  1809 ;;  f1              4   72[BANK0 ] unsigned char 
  1810 ;; Auto vars:     Size  Location     Type
  1811 ;;  exp1            1   77[BANK0 ] unsigned char 
  1812 ;;  sign1           1   76[BANK0 ] unsigned char 
  1813 ;; Return value:  Size  Location     Type
  1814 ;;                  4   72[BANK0 ] long 
  1815 ;; Registers used:
  1816 ;;		wreg, status,2, status,0
  1817 ;; Tracked objects:
  1818 ;;		On entry : 0/0
  1819 ;;		On exit  : 0/0
  1820 ;;		Unchanged: 0/0
  1821 ;; Data sizes:     COMMON   BANK0   BANK1   BANK3   BANK2
  1822 ;;      Params:         0       4       0       0       0
  1823 ;;      Locals:         0       2       0       0       0
  1824 ;;      Temps:          0       0       5       0       0
  1825 ;;      Totals:         0       6       5       0       0
  1826 ;;Total ram usage:       11 bytes
  1827 ;; Hardware stack levels used: 1
  1828 ;; This function calls:
  1829 ;;		Nothing
  1830 ;; This function is called by:
  1831 ;;		_map
  1832 ;; This function uses a non-reentrant model
  1833 ;;
  1834                           
  1835  0CE8                     ___fltol:	
  1836                           ;psect for function ___fltol
  1837                           
  1838  0CE8                     i1l1411:	
  1839                           ;incstack = 0
  1840                           ; Regs used in ___fltol: [wreg+status,2+status,0]
  1841                           
  1842  0CE8  1003               	clrc
  1843  0CE9  1283               	bcf	3,5	;RP0=0, select bank0
  1844  0CEA  1303               	bcf	3,6	;RP1=0, select bank0
  1845  0CEB  0D6A               	rlf	___fltol@f1+2,w
  1846  0CEC  0D6B               	rlf	___fltol@f1+3,w
  1847  0CED  1683               	bsf	3,5	;RP0=1, select bank1
  1848  0CEE  1303               	bcf	3,6	;RP1=0, select bank1
  1849  0CEF  00A0               	movwf	??___fltol^(0+128)
  1850  0CF0  0820               	movf	??___fltol^(0+128),w
  1851  0CF1  1283               	bcf	3,5	;RP0=0, select bank0
  1852  0CF2  1303               	bcf	3,6	;RP1=0, select bank0
  1853  0CF3  00ED               	movwf	___fltol@exp1
  1854  0CF4  086D               	movf	___fltol@exp1,w
  1855  0CF5  1D03               	btfss	3,2
  1856  0CF6  2CF8               	goto	u155_21
  1857  0CF7  2CF9               	goto	u155_20
  1858  0CF8                     u155_21:
  1859  0CF8  2D02               	goto	i1l1417
  1860  0CF9                     u155_20:
  1861  0CF9                     i1l1413:
  1862  0CF9  3000               	movlw	0
  1863  0CFA  00EB               	movwf	?___fltol+3
  1864  0CFB  3000               	movlw	0
  1865  0CFC  00EA               	movwf	?___fltol+2
  1866  0CFD  3000               	movlw	0
  1867  0CFE  00E9               	movwf	?___fltol+1
  1868  0CFF  3000               	movlw	0
  1869  0D00  00E8               	movwf	?___fltol
  1870  0D01  2D83               	goto	i1l373
  1871  0D02                     i1l1417:
  1872  0D02  0868               	movf	___fltol@f1,w
  1873  0D03  1683               	bsf	3,5	;RP0=1, select bank1
  1874  0D04  1303               	bcf	3,6	;RP1=0, select bank1
  1875  0D05  00A0               	movwf	??___fltol^(0+128)
  1876  0D06  1283               	bcf	3,5	;RP0=0, select bank0
  1877  0D07  1303               	bcf	3,6	;RP1=0, select bank0
  1878  0D08  0869               	movf	___fltol@f1+1,w
  1879  0D09  1683               	bsf	3,5	;RP0=1, select bank1
  1880  0D0A  1303               	bcf	3,6	;RP1=0, select bank1
  1881  0D0B  00A1               	movwf	(??___fltol^(0+128)+1)
  1882  0D0C  1283               	bcf	3,5	;RP0=0, select bank0
  1883  0D0D  1303               	bcf	3,6	;RP1=0, select bank0
  1884  0D0E  086A               	movf	___fltol@f1+2,w
  1885  0D0F  1683               	bsf	3,5	;RP0=1, select bank1
  1886  0D10  1303               	bcf	3,6	;RP1=0, select bank1
  1887  0D11  00A2               	movwf	(??___fltol^(0+128)+2)
  1888  0D12  1283               	bcf	3,5	;RP0=0, select bank0
  1889  0D13  1303               	bcf	3,6	;RP1=0, select bank0
  1890  0D14  086B               	movf	___fltol@f1+3,w
  1891  0D15  1683               	bsf	3,5	;RP0=1, select bank1
  1892  0D16  1303               	bcf	3,6	;RP1=0, select bank1
  1893  0D17  00A3               	movwf	(??___fltol^(0+128)+3)
  1894  0D18  301F               	movlw	31
  1895  0D19                     u156_25:
  1896  0D19  1003               	clrc
  1897  0D1A  0CA3               	rrf	(??___fltol^(0+128)+3),f
  1898  0D1B  0CA2               	rrf	(??___fltol^(0+128)+2),f
  1899  0D1C  0CA1               	rrf	(??___fltol^(0+128)+1),f
  1900  0D1D  0CA0               	rrf	??___fltol^(0+128),f
  1901  0D1E                     u156_20:
  1902  0D1E  3EFF               	addlw	-1
  1903  0D1F  1D03               	skipz
  1904  0D20  2D19               	goto	u156_25
  1905  0D21  0820               	movf	??___fltol^(0+128),w
  1906  0D22  00A4               	movwf	(??___fltol+4)^(0+128)
  1907  0D23  0824               	movf	(??___fltol+4)^(0+128),w
  1908  0D24  1283               	bcf	3,5	;RP0=0, select bank0
  1909  0D25  1303               	bcf	3,6	;RP1=0, select bank0
  1910  0D26  00EC               	movwf	___fltol@sign1
  1911  0D27                     i1l1419:
  1912  0D27  17EA               	bsf	___fltol@f1+2,7
  1913  0D28                     i1l1421:
  1914  0D28  30FF               	movlw	255
  1915  0D29  05E8               	andwf	___fltol@f1,f
  1916  0D2A  30FF               	movlw	255
  1917  0D2B  05E9               	andwf	___fltol@f1+1,f
  1918  0D2C  30FF               	movlw	255
  1919  0D2D  05EA               	andwf	___fltol@f1+2,f
  1920  0D2E  3000               	movlw	0
  1921  0D2F  05EB               	andwf	___fltol@f1+3,f
  1922  0D30                     i1l1423:
  1923  0D30  3096               	movlw	150
  1924  0D31  02ED               	subwf	___fltol@exp1,f
  1925  0D32                     i1l1425:
  1926  0D32  1FED               	btfss	___fltol@exp1,7
  1927  0D33  2D35               	goto	u157_21
  1928  0D34  2D36               	goto	u157_20
  1929  0D35                     u157_21:
  1930  0D35  2D54               	goto	i1l1435
  1931  0D36                     u157_20:
  1932  0D36                     i1l1427:
  1933  0D36  086D               	movf	___fltol@exp1,w
  1934  0D37  3A80               	xorlw	128
  1935  0D38  3E97               	addlw	151
  1936  0D39  1803               	skipnc
  1937  0D3A  2D3C               	goto	u158_21
  1938  0D3B  2D3D               	goto	u158_20
  1939  0D3C                     u158_21:
  1940  0D3C  2D3E               	goto	i1l1433
  1941  0D3D                     u158_20:
  1942  0D3D  2CF9               	goto	i1l1413
  1943  0D3E                     i1l1433:
  1944  0D3E  3001               	movlw	1
  1945  0D3F                     u159_25:
  1946  0D3F  1003               	clrc
  1947  0D40  0CEB               	rrf	___fltol@f1+3,f
  1948  0D41  0CEA               	rrf	___fltol@f1+2,f
  1949  0D42  0CE9               	rrf	___fltol@f1+1,f
  1950  0D43  0CE8               	rrf	___fltol@f1,f
  1951  0D44  3EFF               	addlw	-1
  1952  0D45  1D03               	skipz
  1953  0D46  2D3F               	goto	u159_25
  1954  0D47  3001               	movlw	1
  1955  0D48  1683               	bsf	3,5	;RP0=1, select bank1
  1956  0D49  1303               	bcf	3,6	;RP1=0, select bank1
  1957  0D4A  00A0               	movwf	??___fltol^(0+128)
  1958  0D4B  0820               	movf	??___fltol^(0+128),w
  1959  0D4C  1283               	bcf	3,5	;RP0=0, select bank0
  1960  0D4D  1303               	bcf	3,6	;RP1=0, select bank0
  1961  0D4E  07ED               	addwf	___fltol@exp1,f
  1962  0D4F  1D03               	btfss	3,2
  1963  0D50  2D52               	goto	u160_21
  1964  0D51  2D53               	goto	u160_20
  1965  0D52                     u160_21:
  1966  0D52  2D3E               	goto	i1l1433
  1967  0D53                     u160_20:
  1968  0D53  2D73               	goto	i1l1443
  1969  0D54                     i1l1435:
  1970  0D54  3020               	movlw	32
  1971  0D55  026D               	subwf	___fltol@exp1,w
  1972  0D56  1C03               	skipc
  1973  0D57  2D59               	goto	u161_21
  1974  0D58  2D5A               	goto	u161_20
  1975  0D59                     u161_21:
  1976  0D59  2D6E               	goto	i1l380
  1977  0D5A                     u161_20:
  1978  0D5A  2CF9               	goto	i1l1413
  1979  0D5B                     i1l1441:
  1980  0D5B  3001               	movlw	1
  1981  0D5C  1683               	bsf	3,5	;RP0=1, select bank1
  1982  0D5D  1303               	bcf	3,6	;RP1=0, select bank1
  1983  0D5E  00A0               	movwf	??___fltol^(0+128)
  1984  0D5F                     u162_25:
  1985  0D5F  1003               	clrc
  1986  0D60  1283               	bcf	3,5	;RP0=0, select bank0
  1987  0D61  1303               	bcf	3,6	;RP1=0, select bank0
  1988  0D62  0DE8               	rlf	___fltol@f1,f
  1989  0D63  0DE9               	rlf	___fltol@f1+1,f
  1990  0D64  0DEA               	rlf	___fltol@f1+2,f
  1991  0D65  0DEB               	rlf	___fltol@f1+3,f
  1992  0D66  1683               	bsf	3,5	;RP0=1, select bank1
  1993  0D67  1303               	bcf	3,6	;RP1=0, select bank1
  1994  0D68  0BA0               	decfsz	??___fltol^(0+128),f
  1995  0D69  2D5F               	goto	u162_25
  1996  0D6A  3001               	movlw	1
  1997  0D6B  1283               	bcf	3,5	;RP0=0, select bank0
  1998  0D6C  1303               	bcf	3,6	;RP1=0, select bank0
  1999  0D6D  02ED               	subwf	___fltol@exp1,f
  2000  0D6E                     i1l380:
  2001  0D6E  086D               	movf	___fltol@exp1,w
  2002  0D6F  1D03               	btfss	3,2
  2003  0D70  2D72               	goto	u163_21
  2004  0D71  2D73               	goto	u163_20
  2005  0D72                     u163_21:
  2006  0D72  2D5B               	goto	i1l1441
  2007  0D73                     u163_20:
  2008  0D73                     i1l1443:
  2009  0D73  086C               	movf	___fltol@sign1,w
  2010  0D74  1903               	btfsc	3,2
  2011  0D75  2D77               	goto	u164_21
  2012  0D76  2D78               	goto	u164_20
  2013  0D77                     u164_21:
  2014  0D77  2D83               	goto	i1l383
  2015  0D78                     u164_20:
  2016  0D78                     i1l1445:
  2017  0D78  09E8               	comf	___fltol@f1,f
  2018  0D79  09E9               	comf	___fltol@f1+1,f
  2019  0D7A  09EA               	comf	___fltol@f1+2,f
  2020  0D7B  09EB               	comf	___fltol@f1+3,f
  2021  0D7C  0AE8               	incf	___fltol@f1,f
  2022  0D7D  1903               	skipnz
  2023  0D7E  0AE9               	incf	___fltol@f1+1,f
  2024  0D7F  1903               	skipnz
  2025  0D80  0AEA               	incf	___fltol@f1+2,f
  2026  0D81  1903               	skipnz
  2027  0D82  0AEB               	incf	___fltol@f1+3,f
  2028  0D83                     i1l383:
  2029  0D83                     i1l373:
  2030  0D83  0008               	return
  2031  0D84                     __end_of___fltol:
  2032                           
  2033                           	psect	text6
  2034  0021                     __ptext6:	
  2035 ;; *************** function ___flmul *****************
  2036 ;; Defined at:
  2037 ;;		line 8 in file "C:\Program Files\Microchip\xc8\v2.35\pic\sources\c90\common\sprcmul.c"
  2038 ;; Parameters:    Size  Location     Type
  2039 ;;  b               4   26[BANK0 ] long 
  2040 ;;  a               4   30[BANK0 ] long 
  2041 ;; Auto vars:     Size  Location     Type
  2042 ;;  prod            4   46[BANK0 ] struct .
  2043 ;;  grs             4   40[BANK0 ] unsigned long 
  2044 ;;  temp            2   50[BANK0 ] struct .
  2045 ;;  bexp            1   45[BANK0 ] unsigned char 
  2046 ;;  aexp            1   44[BANK0 ] unsigned char 
  2047 ;;  sign            1   39[BANK0 ] unsigned char 
  2048 ;; Return value:  Size  Location     Type
  2049 ;;                  4   26[BANK0 ] unsigned char 
  2050 ;; Registers used:
  2051 ;;		wreg, status,2, status,0, btemp+1, pclath, cstack
  2052 ;; Tracked objects:
  2053 ;;		On entry : 0/0
  2054 ;;		On exit  : 0/0
  2055 ;;		Unchanged: 0/0
  2056 ;; Data sizes:     COMMON   BANK0   BANK1   BANK3   BANK2
  2057 ;;      Params:         0       8       0       0       0
  2058 ;;      Locals:         0      13       0       0       0
  2059 ;;      Temps:          0       5       0       0       0
  2060 ;;      Totals:         0      26       0       0       0
  2061 ;;Total ram usage:       26 bytes
  2062 ;; Hardware stack levels used: 1
  2063 ;; Hardware stack levels required when called: 1
  2064 ;; This function calls:
  2065 ;;		__Umul8_16
  2066 ;; This function is called by:
  2067 ;;		_map
  2068 ;; This function uses a non-reentrant model
  2069 ;;
  2070                           
  2071  0021                     ___flmul:	
  2072                           ;psect for function ___flmul
  2073                           
  2074  0021                     i1l1783:	
  2075                           ;incstack = 0
  2076                           ; Regs used in ___flmul: [wreg+status,2+status,0+btemp+1+pclath+cstack]
  2077                           
  2078  0021  1283               	bcf	3,5	;RP0=0, select bank0
  2079  0022  1303               	bcf	3,6	;RP1=0, select bank0
  2080  0023  083D               	movf	___flmul@b+3,w
  2081  0024  3980               	andlw	128
  2082  0025  00C2               	movwf	??___flmul
  2083  0026  0842               	movf	??___flmul,w
  2084  0027  00C7               	movwf	___flmul@sign
  2085  0028                     i1l1785:
  2086  0028  083D               	movf	___flmul@b+3,w
  2087  0029  00C2               	movwf	??___flmul
  2088  002A  0742               	addwf	??___flmul,w
  2089  002B  00C3               	movwf	??___flmul+1
  2090  002C  0843               	movf	??___flmul+1,w
  2091  002D  00CD               	movwf	___flmul@bexp
  2092  002E                     i1l1787:
  2093  002E  1FBC               	btfss	___flmul@b+2,7
  2094  002F  2831               	goto	u240_21
  2095  0030  2832               	goto	u240_20
  2096  0031                     u240_21:
  2097  0031  2833               	goto	i1l1791
  2098  0032                     u240_20:
  2099  0032                     i1l1789:
  2100  0032  144D               	bsf	___flmul@bexp,0
  2101  0033                     i1l1791:
  2102  0033  084D               	movf	___flmul@bexp,w
  2103  0034  1903               	btfsc	3,2
  2104  0035  2837               	goto	u241_21
  2105  0036  2838               	goto	u241_20
  2106  0037                     u241_21:
  2107  0037  2847               	goto	i1l1799
  2108  0038                     u241_20:
  2109  0038                     i1l1793:
  2110  0038  0A4D               	incf	___flmul@bexp,w
  2111  0039  1D03               	btfss	3,2
  2112  003A  283C               	goto	u242_21
  2113  003B  283D               	goto	u242_20
  2114  003C                     u242_21:
  2115  003C  2845               	goto	i1l1797
  2116  003D                     u242_20:
  2117  003D                     i1l1795:
  2118  003D  3000               	movlw	0
  2119  003E  00BD               	movwf	___flmul@b+3
  2120  003F  3000               	movlw	0
  2121  0040  00BC               	movwf	___flmul@b+2
  2122  0041  3000               	movlw	0
  2123  0042  00BB               	movwf	___flmul@b+1
  2124  0043  3000               	movlw	0
  2125  0044  00BA               	movwf	___flmul@b
  2126  0045                     i1l1797:
  2127  0045  17BC               	bsf	___flmul@b+2,7
  2128  0046  284F               	goto	i1l1801
  2129  0047                     i1l1799:
  2130  0047  3000               	movlw	0
  2131  0048  00BD               	movwf	___flmul@b+3
  2132  0049  3000               	movlw	0
  2133  004A  00BC               	movwf	___flmul@b+2
  2134  004B  3000               	movlw	0
  2135  004C  00BB               	movwf	___flmul@b+1
  2136  004D  3000               	movlw	0
  2137  004E  00BA               	movwf	___flmul@b
  2138  004F                     i1l1801:
  2139  004F  0841               	movf	___flmul@a+3,w
  2140  0050  3980               	andlw	128
  2141  0051  00C2               	movwf	??___flmul
  2142  0052  0842               	movf	??___flmul,w
  2143  0053  06C7               	xorwf	___flmul@sign,f
  2144  0054                     i1l1803:
  2145  0054  0841               	movf	___flmul@a+3,w
  2146  0055  00C2               	movwf	??___flmul
  2147  0056  0742               	addwf	??___flmul,w
  2148  0057  00C3               	movwf	??___flmul+1
  2149  0058  0843               	movf	??___flmul+1,w
  2150  0059  00CC               	movwf	___flmul@aexp
  2151  005A                     i1l1805:
  2152  005A  1FC0               	btfss	___flmul@a+2,7
  2153  005B  285D               	goto	u243_21
  2154  005C  285E               	goto	u243_20
  2155  005D                     u243_21:
  2156  005D  285F               	goto	i1l1809
  2157  005E                     u243_20:
  2158  005E                     i1l1807:
  2159  005E  144C               	bsf	___flmul@aexp,0
  2160  005F                     i1l1809:
  2161  005F  084C               	movf	___flmul@aexp,w
  2162  0060  1903               	btfsc	3,2
  2163  0061  2863               	goto	u244_21
  2164  0062  2864               	goto	u244_20
  2165  0063                     u244_21:
  2166  0063  2873               	goto	i1l1817
  2167  0064                     u244_20:
  2168  0064                     i1l1811:
  2169  0064  0A4C               	incf	___flmul@aexp,w
  2170  0065  1D03               	btfss	3,2
  2171  0066  2868               	goto	u245_21
  2172  0067  2869               	goto	u245_20
  2173  0068                     u245_21:
  2174  0068  2871               	goto	i1l1815
  2175  0069                     u245_20:
  2176  0069                     i1l1813:
  2177  0069  3000               	movlw	0
  2178  006A  00C1               	movwf	___flmul@a+3
  2179  006B  3000               	movlw	0
  2180  006C  00C0               	movwf	___flmul@a+2
  2181  006D  3000               	movlw	0
  2182  006E  00BF               	movwf	___flmul@a+1
  2183  006F  3000               	movlw	0
  2184  0070  00BE               	movwf	___flmul@a
  2185  0071                     i1l1815:
  2186  0071  17C0               	bsf	___flmul@a+2,7
  2187  0072  287B               	goto	i1l1819
  2188  0073                     i1l1817:
  2189  0073  3000               	movlw	0
  2190  0074  00C1               	movwf	___flmul@a+3
  2191  0075  3000               	movlw	0
  2192  0076  00C0               	movwf	___flmul@a+2
  2193  0077  3000               	movlw	0
  2194  0078  00BF               	movwf	___flmul@a+1
  2195  0079  3000               	movlw	0
  2196  007A  00BE               	movwf	___flmul@a
  2197  007B                     i1l1819:
  2198  007B  084C               	movf	___flmul@aexp,w
  2199  007C  1903               	btfsc	3,2
  2200  007D  287F               	goto	u246_21
  2201  007E  2880               	goto	u246_20
  2202  007F                     u246_21:
  2203  007F  2885               	goto	i1l1823
  2204  0080                     u246_20:
  2205  0080                     i1l1821:
  2206  0080  084D               	movf	___flmul@bexp,w
  2207  0081  1D03               	btfss	3,2
  2208  0082  2884               	goto	u247_21
  2209  0083  2885               	goto	u247_20
  2210  0084                     u247_21:
  2211  0084  288E               	goto	i1l1827
  2212  0085                     u247_20:
  2213  0085                     i1l1823:
  2214  0085  3000               	movlw	0
  2215  0086  00BD               	movwf	?___flmul+3
  2216  0087  3000               	movlw	0
  2217  0088  00BC               	movwf	?___flmul+2
  2218  0089  3000               	movlw	0
  2219  008A  00BB               	movwf	?___flmul+1
  2220  008B  3000               	movlw	0
  2221  008C  00BA               	movwf	?___flmul
  2222  008D  2B81               	goto	i1l576
  2223  008E                     i1l1827:
  2224  008E  083A               	movf	___flmul@b,w
  2225  008F  00C2               	movwf	??___flmul
  2226  0090  0842               	movf	??___flmul,w
  2227  0091  00F0               	movwf	__Umul8_16@multiplicand
  2228  0092  0840               	movf	___flmul@a+2,w
  2229  0093  120A  158A  2409  120A  118A  	fcall	__Umul8_16
  2230  0098  0871               	movf	?__Umul8_16+1,w
  2231  0099  1283               	bcf	3,5	;RP0=0, select bank0
  2232  009A  1303               	bcf	3,6	;RP1=0, select bank0
  2233  009B  00D3               	movwf	___flmul@temp+1
  2234  009C  0870               	movf	?__Umul8_16,w
  2235  009D  00D2               	movwf	___flmul@temp
  2236  009E                     i1l1829:
  2237  009E  0852               	movf	___flmul@temp,w
  2238  009F  00C2               	movwf	??___flmul
  2239  00A0  01C3               	clrf	??___flmul+1
  2240  00A1  01C4               	clrf	??___flmul+2
  2241  00A2  01C5               	clrf	??___flmul+3
  2242  00A3  0845               	movf	??___flmul+3,w
  2243  00A4  00CB               	movwf	___flmul@grs+3
  2244  00A5  0844               	movf	??___flmul+2,w
  2245  00A6  00CA               	movwf	___flmul@grs+2
  2246  00A7  0843               	movf	??___flmul+1,w
  2247  00A8  00C9               	movwf	___flmul@grs+1
  2248  00A9  0842               	movf	??___flmul,w
  2249  00AA  00C8               	movwf	___flmul@grs
  2250  00AB                     i1l1831:
  2251  00AB  0853               	movf	___flmul@temp+1,w
  2252  00AC  00C2               	movwf	??___flmul
  2253  00AD  01C3               	clrf	??___flmul+1
  2254  00AE  01C4               	clrf	??___flmul+2
  2255  00AF  01C5               	clrf	??___flmul+3
  2256  00B0  0845               	movf	??___flmul+3,w
  2257  00B1  00D1               	movwf	___flmul@prod+3
  2258  00B2  0844               	movf	??___flmul+2,w
  2259  00B3  00D0               	movwf	___flmul@prod+2
  2260  00B4  0843               	movf	??___flmul+1,w
  2261  00B5  00CF               	movwf	___flmul@prod+1
  2262  00B6  0842               	movf	??___flmul,w
  2263  00B7  00CE               	movwf	___flmul@prod
  2264  00B8  083B               	movf	___flmul@b+1,w
  2265  00B9  00C2               	movwf	??___flmul
  2266  00BA  0842               	movf	??___flmul,w
  2267  00BB  00F0               	movwf	__Umul8_16@multiplicand
  2268  00BC  083F               	movf	___flmul@a+1,w
  2269  00BD  120A  158A  2409  120A  118A  	fcall	__Umul8_16
  2270  00C2  0871               	movf	?__Umul8_16+1,w
  2271  00C3  1283               	bcf	3,5	;RP0=0, select bank0
  2272  00C4  1303               	bcf	3,6	;RP1=0, select bank0
  2273  00C5  00D3               	movwf	___flmul@temp+1
  2274  00C6  0870               	movf	?__Umul8_16,w
  2275  00C7  00D2               	movwf	___flmul@temp
  2276  00C8                     i1l1833:
  2277  00C8  0852               	movf	___flmul@temp,w
  2278  00C9  00C2               	movwf	??___flmul
  2279  00CA  01C3               	clrf	??___flmul+1
  2280  00CB  01C4               	clrf	??___flmul+2
  2281  00CC  01C5               	clrf	??___flmul+3
  2282  00CD  0842               	movf	??___flmul,w
  2283  00CE  07C8               	addwf	___flmul@grs,f
  2284  00CF  0843               	movf	??___flmul+1,w
  2285  00D0  1103               	clrz
  2286  00D1  1803               	skipnc
  2287  00D2  3E01               	addlw	1
  2288  00D3  1903               	skipnz
  2289  00D4  28D6               	goto	u248_21
  2290  00D5  07C9               	addwf	___flmul@grs+1,f
  2291  00D6                     u248_21:
  2292  00D6  0844               	movf	??___flmul+2,w
  2293  00D7  1103               	clrz
  2294  00D8  1803               	skipnc
  2295  00D9  3E01               	addlw	1
  2296  00DA  1903               	skipnz
  2297  00DB  28DD               	goto	u248_22
  2298  00DC  07CA               	addwf	___flmul@grs+2,f
  2299  00DD                     u248_22:
  2300  00DD  0845               	movf	??___flmul+3,w
  2301  00DE  1103               	clrz
  2302  00DF  1803               	skipnc
  2303  00E0  3E01               	addlw	1
  2304  00E1  1903               	skipnz
  2305  00E2  28E4               	goto	u248_23
  2306  00E3  07CB               	addwf	___flmul@grs+3,f
  2307  00E4                     u248_23:
  2308  00E4                     i1l1835:
  2309  00E4  0853               	movf	___flmul@temp+1,w
  2310  00E5  00C2               	movwf	??___flmul
  2311  00E6  01C3               	clrf	??___flmul+1
  2312  00E7  01C4               	clrf	??___flmul+2
  2313  00E8  01C5               	clrf	??___flmul+3
  2314  00E9  0842               	movf	??___flmul,w
  2315  00EA  07CE               	addwf	___flmul@prod,f
  2316  00EB  0843               	movf	??___flmul+1,w
  2317  00EC  1103               	clrz
  2318  00ED  1803               	skipnc
  2319  00EE  3E01               	addlw	1
  2320  00EF  1903               	skipnz
  2321  00F0  28F2               	goto	u249_21
  2322  00F1  07CF               	addwf	___flmul@prod+1,f
  2323  00F2                     u249_21:
  2324  00F2  0844               	movf	??___flmul+2,w
  2325  00F3  1103               	clrz
  2326  00F4  1803               	skipnc
  2327  00F5  3E01               	addlw	1
  2328  00F6  1903               	skipnz
  2329  00F7  28F9               	goto	u249_22
  2330  00F8  07D0               	addwf	___flmul@prod+2,f
  2331  00F9                     u249_22:
  2332  00F9  0845               	movf	??___flmul+3,w
  2333  00FA  1103               	clrz
  2334  00FB  1803               	skipnc
  2335  00FC  3E01               	addlw	1
  2336  00FD  1903               	skipnz
  2337  00FE  2900               	goto	u249_23
  2338  00FF  07D1               	addwf	___flmul@prod+3,f
  2339  0100                     u249_23:
  2340  0100  083C               	movf	___flmul@b+2,w
  2341  0101  00C2               	movwf	??___flmul
  2342  0102  0842               	movf	??___flmul,w
  2343  0103  00F0               	movwf	__Umul8_16@multiplicand
  2344  0104  083E               	movf	___flmul@a,w
  2345  0105  120A  158A  2409  120A  118A  	fcall	__Umul8_16
  2346  010A  0871               	movf	?__Umul8_16+1,w
  2347  010B  1283               	bcf	3,5	;RP0=0, select bank0
  2348  010C  1303               	bcf	3,6	;RP1=0, select bank0
  2349  010D  00D3               	movwf	___flmul@temp+1
  2350  010E  0870               	movf	?__Umul8_16,w
  2351  010F  00D2               	movwf	___flmul@temp
  2352  0110                     i1l1837:
  2353  0110  0852               	movf	___flmul@temp,w
  2354  0111  00C2               	movwf	??___flmul
  2355  0112  01C3               	clrf	??___flmul+1
  2356  0113  01C4               	clrf	??___flmul+2
  2357  0114  01C5               	clrf	??___flmul+3
  2358  0115  0842               	movf	??___flmul,w
  2359  0116  07C8               	addwf	___flmul@grs,f
  2360  0117  0843               	movf	??___flmul+1,w
  2361  0118  1103               	clrz
  2362  0119  1803               	skipnc
  2363  011A  3E01               	addlw	1
  2364  011B  1903               	skipnz
  2365  011C  291E               	goto	u250_21
  2366  011D  07C9               	addwf	___flmul@grs+1,f
  2367  011E                     u250_21:
  2368  011E  0844               	movf	??___flmul+2,w
  2369  011F  1103               	clrz
  2370  0120  1803               	skipnc
  2371  0121  3E01               	addlw	1
  2372  0122  1903               	skipnz
  2373  0123  2925               	goto	u250_22
  2374  0124  07CA               	addwf	___flmul@grs+2,f
  2375  0125                     u250_22:
  2376  0125  0845               	movf	??___flmul+3,w
  2377  0126  1103               	clrz
  2378  0127  1803               	skipnc
  2379  0128  3E01               	addlw	1
  2380  0129  1903               	skipnz
  2381  012A  292C               	goto	u250_23
  2382  012B  07CB               	addwf	___flmul@grs+3,f
  2383  012C                     u250_23:
  2384  012C                     i1l1839:
  2385  012C  0853               	movf	___flmul@temp+1,w
  2386  012D  00C2               	movwf	??___flmul
  2387  012E  01C3               	clrf	??___flmul+1
  2388  012F  01C4               	clrf	??___flmul+2
  2389  0130  01C5               	clrf	??___flmul+3
  2390  0131  0842               	movf	??___flmul,w
  2391  0132  07CE               	addwf	___flmul@prod,f
  2392  0133  0843               	movf	??___flmul+1,w
  2393  0134  1103               	clrz
  2394  0135  1803               	skipnc
  2395  0136  3E01               	addlw	1
  2396  0137  1903               	skipnz
  2397  0138  293A               	goto	u251_21
  2398  0139  07CF               	addwf	___flmul@prod+1,f
  2399  013A                     u251_21:
  2400  013A  0844               	movf	??___flmul+2,w
  2401  013B  1103               	clrz
  2402  013C  1803               	skipnc
  2403  013D  3E01               	addlw	1
  2404  013E  1903               	skipnz
  2405  013F  2941               	goto	u251_22
  2406  0140  07D0               	addwf	___flmul@prod+2,f
  2407  0141                     u251_22:
  2408  0141  0845               	movf	??___flmul+3,w
  2409  0142  1103               	clrz
  2410  0143  1803               	skipnc
  2411  0144  3E01               	addlw	1
  2412  0145  1903               	skipnz
  2413  0146  2948               	goto	u251_23
  2414  0147  07D1               	addwf	___flmul@prod+3,f
  2415  0148                     u251_23:
  2416  0148                     i1l1841:
  2417  0148  3008               	movlw	8
  2418  0149  00C2               	movwf	??___flmul
  2419  014A                     u252_25:
  2420  014A  1003               	clrc
  2421  014B  0DC8               	rlf	___flmul@grs,f
  2422  014C  0DC9               	rlf	___flmul@grs+1,f
  2423  014D  0DCA               	rlf	___flmul@grs+2,f
  2424  014E  0DCB               	rlf	___flmul@grs+3,f
  2425  014F  0BC2               	decfsz	??___flmul,f
  2426  0150  294A               	goto	u252_25
  2427  0151                     i1l1843:
  2428  0151  083B               	movf	___flmul@b+1,w
  2429  0152  00C2               	movwf	??___flmul
  2430  0153  0842               	movf	??___flmul,w
  2431  0154  00F0               	movwf	__Umul8_16@multiplicand
  2432  0155  083E               	movf	___flmul@a,w
  2433  0156  120A  158A  2409  120A  118A  	fcall	__Umul8_16
  2434  015B  0871               	movf	?__Umul8_16+1,w
  2435  015C  1283               	bcf	3,5	;RP0=0, select bank0
  2436  015D  1303               	bcf	3,6	;RP1=0, select bank0
  2437  015E  00D3               	movwf	___flmul@temp+1
  2438  015F  0870               	movf	?__Umul8_16,w
  2439  0160  00D2               	movwf	___flmul@temp
  2440  0161                     i1l1845:
  2441  0161  0852               	movf	___flmul@temp,w
  2442  0162  00C2               	movwf	??___flmul
  2443  0163  0853               	movf	___flmul@temp+1,w
  2444  0164  00C3               	movwf	??___flmul+1
  2445  0165  01C4               	clrf	??___flmul+2
  2446  0166  01C5               	clrf	??___flmul+3
  2447  0167  0842               	movf	??___flmul,w
  2448  0168  07C8               	addwf	___flmul@grs,f
  2449  0169  0843               	movf	??___flmul+1,w
  2450  016A  1103               	clrz
  2451  016B  1803               	skipnc
  2452  016C  3E01               	addlw	1
  2453  016D  1903               	skipnz
  2454  016E  2970               	goto	u253_21
  2455  016F  07C9               	addwf	___flmul@grs+1,f
  2456  0170                     u253_21:
  2457  0170  0844               	movf	??___flmul+2,w
  2458  0171  1103               	clrz
  2459  0172  1803               	skipnc
  2460  0173  3E01               	addlw	1
  2461  0174  1903               	skipnz
  2462  0175  2977               	goto	u253_22
  2463  0176  07CA               	addwf	___flmul@grs+2,f
  2464  0177                     u253_22:
  2465  0177  0845               	movf	??___flmul+3,w
  2466  0178  1103               	clrz
  2467  0179  1803               	skipnc
  2468  017A  3E01               	addlw	1
  2469  017B  1903               	skipnz
  2470  017C  297E               	goto	u253_23
  2471  017D  07CB               	addwf	___flmul@grs+3,f
  2472  017E                     u253_23:
  2473  017E                     i1l1847:
  2474  017E  083A               	movf	___flmul@b,w
  2475  017F  00C2               	movwf	??___flmul
  2476  0180  0842               	movf	??___flmul,w
  2477  0181  00F0               	movwf	__Umul8_16@multiplicand
  2478  0182  083F               	movf	___flmul@a+1,w
  2479  0183  120A  158A  2409  120A  118A  	fcall	__Umul8_16
  2480  0188  0871               	movf	?__Umul8_16+1,w
  2481  0189  1283               	bcf	3,5	;RP0=0, select bank0
  2482  018A  1303               	bcf	3,6	;RP1=0, select bank0
  2483  018B  00D3               	movwf	___flmul@temp+1
  2484  018C  0870               	movf	?__Umul8_16,w
  2485  018D  00D2               	movwf	___flmul@temp
  2486  018E                     i1l1849:
  2487  018E  0852               	movf	___flmul@temp,w
  2488  018F  00C2               	movwf	??___flmul
  2489  0190  0853               	movf	___flmul@temp+1,w
  2490  0191  00C3               	movwf	??___flmul+1
  2491  0192  01C4               	clrf	??___flmul+2
  2492  0193  01C5               	clrf	??___flmul+3
  2493  0194  0842               	movf	??___flmul,w
  2494  0195  07C8               	addwf	___flmul@grs,f
  2495  0196  0843               	movf	??___flmul+1,w
  2496  0197  1103               	clrz
  2497  0198  1803               	skipnc
  2498  0199  3E01               	addlw	1
  2499  019A  1903               	skipnz
  2500  019B  299D               	goto	u254_21
  2501  019C  07C9               	addwf	___flmul@grs+1,f
  2502  019D                     u254_21:
  2503  019D  0844               	movf	??___flmul+2,w
  2504  019E  1103               	clrz
  2505  019F  1803               	skipnc
  2506  01A0  3E01               	addlw	1
  2507  01A1  1903               	skipnz
  2508  01A2  29A4               	goto	u254_22
  2509  01A3  07CA               	addwf	___flmul@grs+2,f
  2510  01A4                     u254_22:
  2511  01A4  0845               	movf	??___flmul+3,w
  2512  01A5  1103               	clrz
  2513  01A6  1803               	skipnc
  2514  01A7  3E01               	addlw	1
  2515  01A8  1903               	skipnz
  2516  01A9  29AB               	goto	u254_23
  2517  01AA  07CB               	addwf	___flmul@grs+3,f
  2518  01AB                     u254_23:
  2519  01AB                     i1l1851:
  2520  01AB  3008               	movlw	8
  2521  01AC  00C2               	movwf	??___flmul
  2522  01AD                     u255_25:
  2523  01AD  1003               	clrc
  2524  01AE  0DC8               	rlf	___flmul@grs,f
  2525  01AF  0DC9               	rlf	___flmul@grs+1,f
  2526  01B0  0DCA               	rlf	___flmul@grs+2,f
  2527  01B1  0DCB               	rlf	___flmul@grs+3,f
  2528  01B2  0BC2               	decfsz	??___flmul,f
  2529  01B3  29AD               	goto	u255_25
  2530  01B4  083A               	movf	___flmul@b,w
  2531  01B5  00C2               	movwf	??___flmul
  2532  01B6  0842               	movf	??___flmul,w
  2533  01B7  00F0               	movwf	__Umul8_16@multiplicand
  2534  01B8  083E               	movf	___flmul@a,w
  2535  01B9  120A  158A  2409  120A  118A  	fcall	__Umul8_16
  2536  01BE  0871               	movf	?__Umul8_16+1,w
  2537  01BF  1283               	bcf	3,5	;RP0=0, select bank0
  2538  01C0  1303               	bcf	3,6	;RP1=0, select bank0
  2539  01C1  00D3               	movwf	___flmul@temp+1
  2540  01C2  0870               	movf	?__Umul8_16,w
  2541  01C3  00D2               	movwf	___flmul@temp
  2542  01C4                     i1l1853:
  2543  01C4  0852               	movf	___flmul@temp,w
  2544  01C5  00C2               	movwf	??___flmul
  2545  01C6  0853               	movf	___flmul@temp+1,w
  2546  01C7  00C3               	movwf	??___flmul+1
  2547  01C8  01C4               	clrf	??___flmul+2
  2548  01C9  01C5               	clrf	??___flmul+3
  2549  01CA  0842               	movf	??___flmul,w
  2550  01CB  07C8               	addwf	___flmul@grs,f
  2551  01CC  0843               	movf	??___flmul+1,w
  2552  01CD  1103               	clrz
  2553  01CE  1803               	skipnc
  2554  01CF  3E01               	addlw	1
  2555  01D0  1903               	skipnz
  2556  01D1  29D3               	goto	u256_21
  2557  01D2  07C9               	addwf	___flmul@grs+1,f
  2558  01D3                     u256_21:
  2559  01D3  0844               	movf	??___flmul+2,w
  2560  01D4  1103               	clrz
  2561  01D5  1803               	skipnc
  2562  01D6  3E01               	addlw	1
  2563  01D7  1903               	skipnz
  2564  01D8  29DA               	goto	u256_22
  2565  01D9  07CA               	addwf	___flmul@grs+2,f
  2566  01DA                     u256_22:
  2567  01DA  0845               	movf	??___flmul+3,w
  2568  01DB  1103               	clrz
  2569  01DC  1803               	skipnc
  2570  01DD  3E01               	addlw	1
  2571  01DE  1903               	skipnz
  2572  01DF  29E1               	goto	u256_23
  2573  01E0  07CB               	addwf	___flmul@grs+3,f
  2574  01E1                     u256_23:
  2575  01E1                     i1l1855:
  2576  01E1  083B               	movf	___flmul@b+1,w
  2577  01E2  00C2               	movwf	??___flmul
  2578  01E3  0842               	movf	??___flmul,w
  2579  01E4  00F0               	movwf	__Umul8_16@multiplicand
  2580  01E5  0840               	movf	___flmul@a+2,w
  2581  01E6  120A  158A  2409  120A  118A  	fcall	__Umul8_16
  2582  01EB  0871               	movf	?__Umul8_16+1,w
  2583  01EC  1283               	bcf	3,5	;RP0=0, select bank0
  2584  01ED  1303               	bcf	3,6	;RP1=0, select bank0
  2585  01EE  00D3               	movwf	___flmul@temp+1
  2586  01EF  0870               	movf	?__Umul8_16,w
  2587  01F0  00D2               	movwf	___flmul@temp
  2588  01F1  0852               	movf	___flmul@temp,w
  2589  01F2  00C2               	movwf	??___flmul
  2590  01F3  0853               	movf	___flmul@temp+1,w
  2591  01F4  00C3               	movwf	??___flmul+1
  2592  01F5  01C4               	clrf	??___flmul+2
  2593  01F6  01C5               	clrf	??___flmul+3
  2594  01F7  0842               	movf	??___flmul,w
  2595  01F8  07CE               	addwf	___flmul@prod,f
  2596  01F9  0843               	movf	??___flmul+1,w
  2597  01FA  1103               	clrz
  2598  01FB  1803               	skipnc
  2599  01FC  3E01               	addlw	1
  2600  01FD  1903               	skipnz
  2601  01FE  2A00               	goto	u257_21
  2602  01FF  07CF               	addwf	___flmul@prod+1,f
  2603  0200                     u257_21:
  2604  0200  0844               	movf	??___flmul+2,w
  2605  0201  1103               	clrz
  2606  0202  1803               	skipnc
  2607  0203  3E01               	addlw	1
  2608  0204  1903               	skipnz
  2609  0205  2A07               	goto	u257_22
  2610  0206  07D0               	addwf	___flmul@prod+2,f
  2611  0207                     u257_22:
  2612  0207  0845               	movf	??___flmul+3,w
  2613  0208  1103               	clrz
  2614  0209  1803               	skipnc
  2615  020A  3E01               	addlw	1
  2616  020B  1903               	skipnz
  2617  020C  2A0E               	goto	u257_23
  2618  020D  07D1               	addwf	___flmul@prod+3,f
  2619  020E                     u257_23:
  2620  020E                     i1l1857:
  2621  020E  083C               	movf	___flmul@b+2,w
  2622  020F  00C2               	movwf	??___flmul
  2623  0210  0842               	movf	??___flmul,w
  2624  0211  00F0               	movwf	__Umul8_16@multiplicand
  2625  0212  083F               	movf	___flmul@a+1,w
  2626  0213  120A  158A  2409  120A  118A  	fcall	__Umul8_16
  2627  0218  0871               	movf	?__Umul8_16+1,w
  2628  0219  1283               	bcf	3,5	;RP0=0, select bank0
  2629  021A  1303               	bcf	3,6	;RP1=0, select bank0
  2630  021B  00D3               	movwf	___flmul@temp+1
  2631  021C  0870               	movf	?__Umul8_16,w
  2632  021D  00D2               	movwf	___flmul@temp
  2633  021E                     i1l1859:
  2634  021E  0852               	movf	___flmul@temp,w
  2635  021F  00C2               	movwf	??___flmul
  2636  0220  0853               	movf	___flmul@temp+1,w
  2637  0221  00C3               	movwf	??___flmul+1
  2638  0222  01C4               	clrf	??___flmul+2
  2639  0223  01C5               	clrf	??___flmul+3
  2640  0224  0842               	movf	??___flmul,w
  2641  0225  07CE               	addwf	___flmul@prod,f
  2642  0226  0843               	movf	??___flmul+1,w
  2643  0227  1103               	clrz
  2644  0228  1803               	skipnc
  2645  0229  3E01               	addlw	1
  2646  022A  1903               	skipnz
  2647  022B  2A2D               	goto	u258_21
  2648  022C  07CF               	addwf	___flmul@prod+1,f
  2649  022D                     u258_21:
  2650  022D  0844               	movf	??___flmul+2,w
  2651  022E  1103               	clrz
  2652  022F  1803               	skipnc
  2653  0230  3E01               	addlw	1
  2654  0231  1903               	skipnz
  2655  0232  2A34               	goto	u258_22
  2656  0233  07D0               	addwf	___flmul@prod+2,f
  2657  0234                     u258_22:
  2658  0234  0845               	movf	??___flmul+3,w
  2659  0235  1103               	clrz
  2660  0236  1803               	skipnc
  2661  0237  3E01               	addlw	1
  2662  0238  1903               	skipnz
  2663  0239  2A3B               	goto	u258_23
  2664  023A  07D1               	addwf	___flmul@prod+3,f
  2665  023B                     u258_23:
  2666  023B  083C               	movf	___flmul@b+2,w
  2667  023C  00C2               	movwf	??___flmul
  2668  023D  0842               	movf	??___flmul,w
  2669  023E  00F0               	movwf	__Umul8_16@multiplicand
  2670  023F  0840               	movf	___flmul@a+2,w
  2671  0240  120A  158A  2409  120A  118A  	fcall	__Umul8_16
  2672  0245  0871               	movf	?__Umul8_16+1,w
  2673  0246  1283               	bcf	3,5	;RP0=0, select bank0
  2674  0247  1303               	bcf	3,6	;RP1=0, select bank0
  2675  0248  00D3               	movwf	___flmul@temp+1
  2676  0249  0870               	movf	?__Umul8_16,w
  2677  024A  00D2               	movwf	___flmul@temp
  2678  024B                     i1l1861:
  2679  024B  0852               	movf	___flmul@temp,w
  2680  024C  00C2               	movwf	??___flmul
  2681  024D  0853               	movf	___flmul@temp+1,w
  2682  024E  00C3               	movwf	??___flmul+1
  2683  024F  01C4               	clrf	??___flmul+2
  2684  0250  01C5               	clrf	??___flmul+3
  2685  0251  3008               	movlw	8
  2686  0252                     u259_25:
  2687  0252  1003               	clrc
  2688  0253  0DC2               	rlf	??___flmul,f
  2689  0254  0DC3               	rlf	??___flmul+1,f
  2690  0255  0DC4               	rlf	??___flmul+2,f
  2691  0256  0DC5               	rlf	??___flmul+3,f
  2692  0257                     u259_20:
  2693  0257  3EFF               	addlw	-1
  2694  0258  1D03               	skipz
  2695  0259  2A52               	goto	u259_25
  2696  025A  0842               	movf	??___flmul,w
  2697  025B  07CE               	addwf	___flmul@prod,f
  2698  025C  0843               	movf	??___flmul+1,w
  2699  025D  1103               	clrz
  2700  025E  1803               	skipnc
  2701  025F  3E01               	addlw	1
  2702  0260  1903               	skipnz
  2703  0261  2A63               	goto	u260_21
  2704  0262  07CF               	addwf	___flmul@prod+1,f
  2705  0263                     u260_21:
  2706  0263  0844               	movf	??___flmul+2,w
  2707  0264  1103               	clrz
  2708  0265  1803               	skipnc
  2709  0266  3E01               	addlw	1
  2710  0267  1903               	skipnz
  2711  0268  2A6A               	goto	u260_22
  2712  0269  07D0               	addwf	___flmul@prod+2,f
  2713  026A                     u260_22:
  2714  026A  0845               	movf	??___flmul+3,w
  2715  026B  1103               	clrz
  2716  026C  1803               	skipnc
  2717  026D  3E01               	addlw	1
  2718  026E  1903               	skipnz
  2719  026F  2A71               	goto	u260_23
  2720  0270  07D1               	addwf	___flmul@prod+3,f
  2721  0271                     u260_23:
  2722  0271                     i1l1863:
  2723  0271  0848               	movf	___flmul@grs,w
  2724  0272  00C2               	movwf	??___flmul
  2725  0273  0849               	movf	___flmul@grs+1,w
  2726  0274  00C3               	movwf	??___flmul+1
  2727  0275  084A               	movf	___flmul@grs+2,w
  2728  0276  00C4               	movwf	??___flmul+2
  2729  0277  084B               	movf	___flmul@grs+3,w
  2730  0278  00C5               	movwf	??___flmul+3
  2731  0279  3018               	movlw	24
  2732  027A                     u261_25:
  2733  027A  1003               	clrc
  2734  027B  0CC5               	rrf	??___flmul+3,f
  2735  027C  0CC4               	rrf	??___flmul+2,f
  2736  027D  0CC3               	rrf	??___flmul+1,f
  2737  027E  0CC2               	rrf	??___flmul,f
  2738  027F                     u261_20:
  2739  027F  3EFF               	addlw	-1
  2740  0280  1D03               	skipz
  2741  0281  2A7A               	goto	u261_25
  2742  0282  0842               	movf	??___flmul,w
  2743  0283  07CE               	addwf	___flmul@prod,f
  2744  0284  0843               	movf	??___flmul+1,w
  2745  0285  1103               	clrz
  2746  0286  1803               	skipnc
  2747  0287  3E01               	addlw	1
  2748  0288  1903               	skipnz
  2749  0289  2A8B               	goto	u262_21
  2750  028A  07CF               	addwf	___flmul@prod+1,f
  2751  028B                     u262_21:
  2752  028B  0844               	movf	??___flmul+2,w
  2753  028C  1103               	clrz
  2754  028D  1803               	skipnc
  2755  028E  3E01               	addlw	1
  2756  028F  1903               	skipnz
  2757  0290  2A92               	goto	u262_22
  2758  0291  07D0               	addwf	___flmul@prod+2,f
  2759  0292                     u262_22:
  2760  0292  0845               	movf	??___flmul+3,w
  2761  0293  1103               	clrz
  2762  0294  1803               	skipnc
  2763  0295  3E01               	addlw	1
  2764  0296  1903               	skipnz
  2765  0297  2A99               	goto	u262_23
  2766  0298  07D1               	addwf	___flmul@prod+3,f
  2767  0299                     u262_23:
  2768  0299                     i1l1865:
  2769  0299  3008               	movlw	8
  2770  029A  00C2               	movwf	??___flmul
  2771  029B                     u263_25:
  2772  029B  1003               	clrc
  2773  029C  0DC8               	rlf	___flmul@grs,f
  2774  029D  0DC9               	rlf	___flmul@grs+1,f
  2775  029E  0DCA               	rlf	___flmul@grs+2,f
  2776  029F  0DCB               	rlf	___flmul@grs+3,f
  2777  02A0  0BC2               	decfsz	??___flmul,f
  2778  02A1  2A9B               	goto	u263_25
  2779  02A2                     i1l1867:
  2780  02A2  084D               	movf	___flmul@bexp,w
  2781  02A3  074C               	addwf	___flmul@aexp,w
  2782  02A4  00C2               	movwf	??___flmul
  2783  02A5  01C3               	clrf	??___flmul+1
  2784  02A6  0DC3               	rlf	??___flmul+1,f
  2785  02A7  0842               	movf	??___flmul,w
  2786  02A8  3E82               	addlw	130
  2787  02A9  00D2               	movwf	___flmul@temp
  2788  02AA  0843               	movf	??___flmul+1,w
  2789  02AB  1803               	skipnc
  2790  02AC  3E01               	addlw	1
  2791  02AD  3EFF               	addlw	255
  2792  02AE  00D3               	movwf	___flmul@temp+1
  2793  02AF  2ACD               	goto	i1l1879
  2794  02B0                     i1l1869:
  2795  02B0  3001               	movlw	1
  2796  02B1  00C2               	movwf	??___flmul
  2797  02B2                     u264_25:
  2798  02B2  1003               	clrc
  2799  02B3  0DCE               	rlf	___flmul@prod,f
  2800  02B4  0DCF               	rlf	___flmul@prod+1,f
  2801  02B5  0DD0               	rlf	___flmul@prod+2,f
  2802  02B6  0DD1               	rlf	___flmul@prod+3,f
  2803  02B7  0BC2               	decfsz	??___flmul,f
  2804  02B8  2AB2               	goto	u264_25
  2805  02B9                     i1l1871:
  2806  02B9  1FCB               	btfss	___flmul@grs+3,7
  2807  02BA  2ABC               	goto	u265_21
  2808  02BB  2ABD               	goto	u265_20
  2809  02BC                     u265_21:
  2810  02BC  2ABE               	goto	i1l1875
  2811  02BD                     u265_20:
  2812  02BD                     i1l1873:
  2813  02BD  144E               	bsf	___flmul@prod,0
  2814  02BE                     i1l1875:
  2815  02BE  3001               	movlw	1
  2816  02BF  00C2               	movwf	??___flmul
  2817  02C0                     u266_25:
  2818  02C0  1003               	clrc
  2819  02C1  0DC8               	rlf	___flmul@grs,f
  2820  02C2  0DC9               	rlf	___flmul@grs+1,f
  2821  02C3  0DCA               	rlf	___flmul@grs+2,f
  2822  02C4  0DCB               	rlf	___flmul@grs+3,f
  2823  02C5  0BC2               	decfsz	??___flmul,f
  2824  02C6  2AC0               	goto	u266_25
  2825  02C7                     i1l1877:
  2826  02C7  30FF               	movlw	255
  2827  02C8  07D2               	addwf	___flmul@temp,f
  2828  02C9  1803               	skipnc
  2829  02CA  0AD3               	incf	___flmul@temp+1,f
  2830  02CB  30FF               	movlw	255
  2831  02CC  07D3               	addwf	___flmul@temp+1,f
  2832  02CD                     i1l1879:
  2833  02CD  1FD0               	btfss	___flmul@prod+2,7
  2834  02CE  2AD0               	goto	u267_21
  2835  02CF  2AD1               	goto	u267_20
  2836  02D0                     u267_21:
  2837  02D0  2AB0               	goto	i1l1869
  2838  02D1                     u267_20:
  2839  02D1                     i1l1881:
  2840  02D1  01CC               	clrf	___flmul@aexp
  2841  02D2                     i1l1883:
  2842  02D2  1FCB               	btfss	___flmul@grs+3,7
  2843  02D3  2AD5               	goto	u268_21
  2844  02D4  2AD6               	goto	u268_20
  2845  02D5                     u268_21:
  2846  02D5  2AF2               	goto	i1l1891
  2847  02D6                     u268_20:
  2848  02D6                     i1l1885:
  2849  02D6  30FF               	movlw	255
  2850  02D7  0548               	andwf	___flmul@grs,w
  2851  02D8  00C2               	movwf	??___flmul
  2852  02D9  30FF               	movlw	255
  2853  02DA  0549               	andwf	___flmul@grs+1,w
  2854  02DB  00C3               	movwf	??___flmul+1
  2855  02DC  30FF               	movlw	255
  2856  02DD  054A               	andwf	___flmul@grs+2,w
  2857  02DE  00C4               	movwf	??___flmul+2
  2858  02DF  307F               	movlw	127
  2859  02E0  054B               	andwf	___flmul@grs+3,w
  2860  02E1  00C5               	movwf	??___flmul+3
  2861  02E2  0845               	movf	??___flmul+3,w
  2862  02E3  0444               	iorwf	??___flmul+2,w
  2863  02E4  0443               	iorwf	??___flmul+1,w
  2864  02E5  0442               	iorwf	??___flmul,w
  2865  02E6  1903               	skipnz
  2866  02E7  2AE9               	goto	u269_21
  2867  02E8  2AEA               	goto	u269_20
  2868  02E9                     u269_21:
  2869  02E9  2AED               	goto	i1l582
  2870  02EA                     u269_20:
  2871  02EA                     i1l1887:
  2872  02EA  01CC               	clrf	___flmul@aexp
  2873  02EB  0ACC               	incf	___flmul@aexp,f
  2874  02EC  2AF2               	goto	i1l1891
  2875  02ED                     i1l582:
  2876  02ED  1C4E               	btfss	___flmul@prod,0
  2877  02EE  2AF0               	goto	u270_21
  2878  02EF  2AF1               	goto	u270_20
  2879  02F0                     u270_21:
  2880  02F0  2AF2               	goto	i1l1891
  2881  02F1                     u270_20:
  2882  02F1  2AEA               	goto	i1l1887
  2883  02F2                     i1l1891:
  2884  02F2  084C               	movf	___flmul@aexp,w
  2885  02F3  1903               	btfsc	3,2
  2886  02F4  2AF6               	goto	u271_21
  2887  02F5  2AF7               	goto	u271_20
  2888  02F6                     u271_21:
  2889  02F6  2B28               	goto	i1l1901
  2890  02F7                     u271_20:
  2891  02F7                     i1l1893:
  2892  02F7  3001               	movlw	1
  2893  02F8  07CE               	addwf	___flmul@prod,f
  2894  02F9  3000               	movlw	0
  2895  02FA  1803               	skipnc
  2896  02FB  3001               	movlw	1
  2897  02FC  07CF               	addwf	___flmul@prod+1,f
  2898  02FD  3000               	movlw	0
  2899  02FE  1803               	skipnc
  2900  02FF  3001               	movlw	1
  2901  0300  07D0               	addwf	___flmul@prod+2,f
  2902  0301  3000               	movlw	0
  2903  0302  1803               	skipnc
  2904  0303  3001               	movlw	1
  2905  0304  07D1               	addwf	___flmul@prod+3,f
  2906  0305                     i1l1895:
  2907  0305  1C51               	btfss	___flmul@prod+3,0
  2908  0306  2B08               	goto	u272_21
  2909  0307  2B09               	goto	u272_20
  2910  0308                     u272_21:
  2911  0308  2B28               	goto	i1l1901
  2912  0309                     u272_20:
  2913  0309                     i1l1897:
  2914  0309  084E               	movf	___flmul@prod,w
  2915  030A  00C2               	movwf	??___flmul
  2916  030B  084F               	movf	___flmul@prod+1,w
  2917  030C  00C3               	movwf	??___flmul+1
  2918  030D  0850               	movf	___flmul@prod+2,w
  2919  030E  00C4               	movwf	??___flmul+2
  2920  030F  0851               	movf	___flmul@prod+3,w
  2921  0310  00C5               	movwf	??___flmul+3
  2922  0311  3001               	movlw	1
  2923  0312  00C6               	movwf	??___flmul+4
  2924  0313                     u273_25:
  2925  0313  0D45               	rlf	??___flmul+3,w
  2926  0314  0CC5               	rrf	??___flmul+3,f
  2927  0315  0CC4               	rrf	??___flmul+2,f
  2928  0316  0CC3               	rrf	??___flmul+1,f
  2929  0317  0CC2               	rrf	??___flmul,f
  2930  0318                     u273_20:
  2931  0318  0BC6               	decfsz	??___flmul+4,f
  2932  0319  2B13               	goto	u273_25
  2933  031A  0845               	movf	??___flmul+3,w
  2934  031B  00D1               	movwf	___flmul@prod+3
  2935  031C  0844               	movf	??___flmul+2,w
  2936  031D  00D0               	movwf	___flmul@prod+2
  2937  031E  0843               	movf	??___flmul+1,w
  2938  031F  00CF               	movwf	___flmul@prod+1
  2939  0320  0842               	movf	??___flmul,w
  2940  0321  00CE               	movwf	___flmul@prod
  2941  0322                     i1l1899:
  2942  0322  3001               	movlw	1
  2943  0323  07D2               	addwf	___flmul@temp,f
  2944  0324  1803               	skipnc
  2945  0325  0AD3               	incf	___flmul@temp+1,f
  2946  0326  3000               	movlw	0
  2947  0327  07D3               	addwf	___flmul@temp+1,f
  2948  0328                     i1l1901:
  2949  0328  0853               	movf	___flmul@temp+1,w
  2950  0329  3A80               	xorlw	128
  2951  032A  00FF               	movwf	btemp+1
  2952  032B  3080               	movlw	128
  2953  032C  027F               	subwf	btemp+1,w
  2954  032D  1D03               	skipz
  2955  032E  2B31               	goto	u274_25
  2956  032F  30FF               	movlw	255
  2957  0330  0252               	subwf	___flmul@temp,w
  2958  0331                     u274_25:
  2959  0331  1C03               	skipc
  2960  0332  2B34               	goto	u274_21
  2961  0333  2B35               	goto	u274_20
  2962  0334                     u274_21:
  2963  0334  2B40               	goto	i1l1905
  2964  0335                     u274_20:
  2965  0335                     i1l1903:
  2966  0335  307F               	movlw	127
  2967  0336  1283               	bcf	3,5	;RP0=0, select bank0
  2968  0337  1303               	bcf	3,6	;RP1=0, select bank0
  2969  0338  00D1               	movwf	___flmul@prod+3
  2970  0339  3080               	movlw	128
  2971  033A  00D0               	movwf	___flmul@prod+2
  2972  033B  3000               	movlw	0
  2973  033C  00CF               	movwf	___flmul@prod+1
  2974  033D  3000               	movlw	0
  2975  033E  00CE               	movwf	___flmul@prod
  2976  033F  2B75               	goto	i1l588
  2977  0340                     i1l1905:
  2978  0340  1283               	bcf	3,5	;RP0=0, select bank0
  2979  0341  1303               	bcf	3,6	;RP1=0, select bank0
  2980  0342  0853               	movf	___flmul@temp+1,w
  2981  0343  3A80               	xorlw	128
  2982  0344  00FF               	movwf	btemp+1
  2983  0345  3080               	movlw	128
  2984  0346  027F               	subwf	btemp+1,w
  2985  0347  1D03               	skipz
  2986  0348  2B4B               	goto	u275_25
  2987  0349  3001               	movlw	1
  2988  034A  0252               	subwf	___flmul@temp,w
  2989  034B                     u275_25:
  2990  034B  1803               	skipnc
  2991  034C  2B4E               	goto	u275_21
  2992  034D  2B4F               	goto	u275_20
  2993  034E                     u275_21:
  2994  034E  2B5B               	goto	i1l1911
  2995  034F                     u275_20:
  2996  034F                     i1l1907:
  2997  034F  3000               	movlw	0
  2998  0350  1283               	bcf	3,5	;RP0=0, select bank0
  2999  0351  1303               	bcf	3,6	;RP1=0, select bank0
  3000  0352  00D1               	movwf	___flmul@prod+3
  3001  0353  3000               	movlw	0
  3002  0354  00D0               	movwf	___flmul@prod+2
  3003  0355  3000               	movlw	0
  3004  0356  00CF               	movwf	___flmul@prod+1
  3005  0357  3000               	movlw	0
  3006  0358  00CE               	movwf	___flmul@prod
  3007  0359                     i1l1909:
  3008  0359  01C7               	clrf	___flmul@sign
  3009  035A  2B75               	goto	i1l588
  3010  035B                     i1l1911:
  3011  035B  1283               	bcf	3,5	;RP0=0, select bank0
  3012  035C  1303               	bcf	3,6	;RP1=0, select bank0
  3013  035D  0852               	movf	___flmul@temp,w
  3014  035E  00C2               	movwf	??___flmul
  3015  035F  0842               	movf	??___flmul,w
  3016  0360  00CD               	movwf	___flmul@bexp
  3017  0361  30FF               	movlw	255
  3018  0362  05CE               	andwf	___flmul@prod,f
  3019  0363  30FF               	movlw	255
  3020  0364  05CF               	andwf	___flmul@prod+1,f
  3021  0365  307F               	movlw	127
  3022  0366  05D0               	andwf	___flmul@prod+2,f
  3023  0367  3000               	movlw	0
  3024  0368  05D1               	andwf	___flmul@prod+3,f
  3025  0369                     i1l1913:
  3026  0369  1C4D               	btfss	___flmul@bexp,0
  3027  036A  2B6C               	goto	u276_21
  3028  036B  2B6D               	goto	u276_20
  3029  036C                     u276_21:
  3030  036C  2B6E               	goto	i1l1917
  3031  036D                     u276_20:
  3032  036D                     i1l1915:
  3033  036D  17D0               	bsf	___flmul@prod+2,7
  3034  036E                     i1l1917:
  3035  036E  084D               	movf	___flmul@bexp,w
  3036  036F  00C2               	movwf	??___flmul
  3037  0370  1003               	clrc
  3038  0371  0C42               	rrf	??___flmul,w
  3039  0372  00C3               	movwf	??___flmul+1
  3040  0373  0843               	movf	??___flmul+1,w
  3041  0374  00D1               	movwf	___flmul@prod+3
  3042  0375                     i1l588:
  3043  0375  0847               	movf	___flmul@sign,w
  3044  0376  00C2               	movwf	??___flmul
  3045  0377  0842               	movf	??___flmul,w
  3046  0378  04D1               	iorwf	___flmul@prod+3,f
  3047  0379                     i1l1919:
  3048  0379  0851               	movf	___flmul@prod+3,w
  3049  037A  00BD               	movwf	?___flmul+3
  3050  037B  0850               	movf	___flmul@prod+2,w
  3051  037C  00BC               	movwf	?___flmul+2
  3052  037D  084F               	movf	___flmul@prod+1,w
  3053  037E  00BB               	movwf	?___flmul+1
  3054  037F  084E               	movf	___flmul@prod,w
  3055  0380  00BA               	movwf	?___flmul
  3056  0381                     i1l576:
  3057  0381  0008               	return
  3058  0382                     __end_of___flmul:
  3059                           
  3060                           	psect	text7
  3061  0C09                     __ptext7:	
  3062 ;; *************** function __Umul8_16 *****************
  3063 ;; Defined at:
  3064 ;;		line 4 in file "C:\Program Files\Microchip\xc8\v2.35\pic\sources\c90\common\Umul8_16.c"
  3065 ;; Parameters:    Size  Location     Type
  3066 ;;  multiplier      1    wreg     unsigned char 
  3067 ;;  multiplicand    1    0[COMMON] unsigned char 
  3068 ;; Auto vars:     Size  Location     Type
  3069 ;;  multiplier      1    8[COMMON] unsigned char 
  3070 ;;  word_mpld       2    6[COMMON] unsigned int 
  3071 ;;  product         2    4[COMMON] unsigned int 
  3072 ;; Return value:  Size  Location     Type
  3073 ;;                  2    0[COMMON] unsigned int 
  3074 ;; Registers used:
  3075 ;;		wreg, status,2, status,0
  3076 ;; Tracked objects:
  3077 ;;		On entry : 0/0
  3078 ;;		On exit  : 0/0
  3079 ;;		Unchanged: 0/0
  3080 ;; Data sizes:     COMMON   BANK0   BANK1   BANK3   BANK2
  3081 ;;      Params:         2       0       0       0       0
  3082 ;;      Locals:         5       0       0       0       0
  3083 ;;      Temps:          2       0       0       0       0
  3084 ;;      Totals:         9       0       0       0       0
  3085 ;;Total ram usage:        9 bytes
  3086 ;; Hardware stack levels used: 1
  3087 ;; This function calls:
  3088 ;;		Nothing
  3089 ;; This function is called by:
  3090 ;;		___flmul
  3091 ;; This function uses a non-reentrant model
  3092 ;;
  3093                           
  3094  0C09                     __Umul8_16:	
  3095                           ;psect for function __Umul8_16
  3096                           
  3097                           
  3098                           ;incstack = 0
  3099                           ; Regs used in __Umul8_16: [wreg+status,2+status,0]
  3100                           ;__Umul8_16@multiplier stored from wreg
  3101  0C09  00F8               	movwf	__Umul8_16@multiplier
  3102  0C0A                     i1l1397:
  3103  0C0A  01F4               	clrf	__Umul8_16@product
  3104  0C0B  01F5               	clrf	__Umul8_16@product+1
  3105  0C0C                     i1l1399:
  3106  0C0C  0870               	movf	__Umul8_16@multiplicand,w
  3107  0C0D  00F2               	movwf	??__Umul8_16
  3108  0C0E  01F3               	clrf	??__Umul8_16+1
  3109  0C0F  0872               	movf	??__Umul8_16,w
  3110  0C10  00F6               	movwf	__Umul8_16@word_mpld
  3111  0C11  0873               	movf	??__Umul8_16+1,w
  3112  0C12  00F7               	movwf	__Umul8_16@word_mpld+1
  3113  0C13                     i1l1401:
  3114  0C13  1C78               	btfss	__Umul8_16@multiplier,0
  3115  0C14  2C16               	goto	u152_21
  3116  0C15  2C17               	goto	u152_20
  3117  0C16                     u152_21:
  3118  0C16  2C1D               	goto	i1l595
  3119  0C17                     u152_20:
  3120  0C17                     i1l1403:
  3121  0C17  0876               	movf	__Umul8_16@word_mpld,w
  3122  0C18  07F4               	addwf	__Umul8_16@product,f
  3123  0C19  1803               	skipnc
  3124  0C1A  0AF5               	incf	__Umul8_16@product+1,f
  3125  0C1B  0877               	movf	__Umul8_16@word_mpld+1,w
  3126  0C1C  07F5               	addwf	__Umul8_16@product+1,f
  3127  0C1D                     i1l595:
  3128  0C1D  3001               	movlw	1
  3129  0C1E                     u153_25:
  3130  0C1E  1003               	clrc
  3131  0C1F  0DF6               	rlf	__Umul8_16@word_mpld,f
  3132  0C20  0DF7               	rlf	__Umul8_16@word_mpld+1,f
  3133  0C21  3EFF               	addlw	-1
  3134  0C22  1D03               	skipz
  3135  0C23  2C1E               	goto	u153_25
  3136  0C24  1003               	clrc
  3137  0C25  0CF8               	rrf	__Umul8_16@multiplier,f
  3138  0C26                     i1l1405:
  3139  0C26  0878               	movf	__Umul8_16@multiplier,w
  3140  0C27  1D03               	btfss	3,2
  3141  0C28  2C2A               	goto	u154_21
  3142  0C29  2C2B               	goto	u154_20
  3143  0C2A                     u154_21:
  3144  0C2A  2C13               	goto	i1l1401
  3145  0C2B                     u154_20:
  3146  0C2B                     i1l1407:
  3147  0C2B  0875               	movf	__Umul8_16@product+1,w
  3148  0C2C  00F1               	movwf	?__Umul8_16+1
  3149  0C2D  0874               	movf	__Umul8_16@product,w
  3150  0C2E  00F0               	movwf	?__Umul8_16
  3151  0C2F                     i1l597:
  3152  0C2F  0008               	return
  3153  0C30                     __end_of__Umul8_16:
  3154                           
  3155                           	psect	text8
  3156  060A                     __ptext8:	
  3157 ;; *************** function ___fldiv *****************
  3158 ;; Defined at:
  3159 ;;		line 8 in file "C:\Program Files\Microchip\xc8\v2.35\pic\sources\c90\common\sprcdiv.c"
  3160 ;; Parameters:    Size  Location     Type
  3161 ;;  a               4    0[BANK0 ] unsigned int 
  3162 ;;  b               4    4[BANK0 ] unsigned int 
  3163 ;; Auto vars:     Size  Location     Type
  3164 ;;  grs             4   20[BANK0 ] unsigned long 
  3165 ;;  rem             4   13[BANK0 ] unsigned long 
  3166 ;;  new_exp         2   18[BANK0 ] int 
  3167 ;;  aexp            1   25[BANK0 ] unsigned char 
  3168 ;;  bexp            1   24[BANK0 ] unsigned char 
  3169 ;;  sign            1   17[BANK0 ] unsigned char 
  3170 ;; Return value:  Size  Location     Type
  3171 ;;                  4    0[BANK0 ] unsigned char 
  3172 ;; Registers used:
  3173 ;;		wreg, status,2, status,0, btemp+1
  3174 ;; Tracked objects:
  3175 ;;		On entry : 0/0
  3176 ;;		On exit  : 0/0
  3177 ;;		Unchanged: 0/0
  3178 ;; Data sizes:     COMMON   BANK0   BANK1   BANK3   BANK2
  3179 ;;      Params:         0       8       0       0       0
  3180 ;;      Locals:         0      13       0       0       0
  3181 ;;      Temps:          0       5       0       0       0
  3182 ;;      Totals:         0      26       0       0       0
  3183 ;;Total ram usage:       26 bytes
  3184 ;; Hardware stack levels used: 1
  3185 ;; This function calls:
  3186 ;;		Nothing
  3187 ;; This function is called by:
  3188 ;;		_map
  3189 ;; This function uses a non-reentrant model
  3190 ;;
  3191                           
  3192  060A                     ___fldiv:	
  3193                           ;psect for function ___fldiv
  3194                           
  3195  060A                     i1l1641:	
  3196                           ;incstack = 0
  3197                           ; Regs used in ___fldiv: [wreg+status,2+status,0+btemp+1]
  3198                           
  3199  060A  1283               	bcf	3,5	;RP0=0, select bank0
  3200  060B  1303               	bcf	3,6	;RP1=0, select bank0
  3201  060C  0827               	movf	___fldiv@b+3,w
  3202  060D  3980               	andlw	128
  3203  060E  00A8               	movwf	??___fldiv
  3204  060F  0828               	movf	??___fldiv,w
  3205  0610  00B1               	movwf	___fldiv@sign
  3206  0611                     i1l1643:
  3207  0611  0827               	movf	___fldiv@b+3,w
  3208  0612  00A8               	movwf	??___fldiv
  3209  0613  0728               	addwf	??___fldiv,w
  3210  0614  00A9               	movwf	??___fldiv+1
  3211  0615  0829               	movf	??___fldiv+1,w
  3212  0616  00B8               	movwf	___fldiv@bexp
  3213  0617                     i1l1645:
  3214  0617  1FA6               	btfss	___fldiv@b+2,7
  3215  0618  2E1A               	goto	u211_21
  3216  0619  2E1B               	goto	u211_20
  3217  061A                     u211_21:
  3218  061A  2E1C               	goto	i1l1649
  3219  061B                     u211_20:
  3220  061B                     i1l1647:
  3221  061B  1438               	bsf	___fldiv@bexp,0
  3222  061C                     i1l1649:
  3223  061C  0838               	movf	___fldiv@bexp,w
  3224  061D  1903               	btfsc	3,2
  3225  061E  2E20               	goto	u212_21
  3226  061F  2E21               	goto	u212_20
  3227  0620                     u212_21:
  3228  0620  2E31               	goto	i1l1659
  3229  0621                     u212_20:
  3230  0621                     i1l1651:
  3231  0621  0A38               	incf	___fldiv@bexp,w
  3232  0622  1D03               	btfss	3,2
  3233  0623  2E25               	goto	u213_21
  3234  0624  2E26               	goto	u213_20
  3235  0625                     u213_21:
  3236  0625  2E2E               	goto	i1l1655
  3237  0626                     u213_20:
  3238  0626                     i1l1653:
  3239  0626  3000               	movlw	0
  3240  0627  00A7               	movwf	___fldiv@b+3
  3241  0628  3000               	movlw	0
  3242  0629  00A6               	movwf	___fldiv@b+2
  3243  062A  3000               	movlw	0
  3244  062B  00A5               	movwf	___fldiv@b+1
  3245  062C  3000               	movlw	0
  3246  062D  00A4               	movwf	___fldiv@b
  3247  062E                     i1l1655:
  3248  062E  17A6               	bsf	___fldiv@b+2,7
  3249  062F                     i1l1657:
  3250  062F  01A7               	clrf	___fldiv@b+3
  3251  0630  2E39               	goto	i1l1661
  3252  0631                     i1l1659:
  3253  0631  3000               	movlw	0
  3254  0632  00A7               	movwf	___fldiv@b+3
  3255  0633  3000               	movlw	0
  3256  0634  00A6               	movwf	___fldiv@b+2
  3257  0635  3000               	movlw	0
  3258  0636  00A5               	movwf	___fldiv@b+1
  3259  0637  3000               	movlw	0
  3260  0638  00A4               	movwf	___fldiv@b
  3261  0639                     i1l1661:
  3262  0639  0823               	movf	___fldiv@a+3,w
  3263  063A  3980               	andlw	128
  3264  063B  00A8               	movwf	??___fldiv
  3265  063C  0828               	movf	??___fldiv,w
  3266  063D  06B1               	xorwf	___fldiv@sign,f
  3267  063E                     i1l1663:
  3268  063E  0823               	movf	___fldiv@a+3,w
  3269  063F  00A8               	movwf	??___fldiv
  3270  0640  0728               	addwf	??___fldiv,w
  3271  0641  00A9               	movwf	??___fldiv+1
  3272  0642  0829               	movf	??___fldiv+1,w
  3273  0643  00B9               	movwf	___fldiv@aexp
  3274  0644                     i1l1665:
  3275  0644  1FA2               	btfss	___fldiv@a+2,7
  3276  0645  2E47               	goto	u214_21
  3277  0646  2E48               	goto	u214_20
  3278  0647                     u214_21:
  3279  0647  2E49               	goto	i1l1669
  3280  0648                     u214_20:
  3281  0648                     i1l1667:
  3282  0648  1439               	bsf	___fldiv@aexp,0
  3283  0649                     i1l1669:
  3284  0649  0839               	movf	___fldiv@aexp,w
  3285  064A  1903               	btfsc	3,2
  3286  064B  2E4D               	goto	u215_21
  3287  064C  2E4E               	goto	u215_20
  3288  064D                     u215_21:
  3289  064D  2E5E               	goto	i1l1679
  3290  064E                     u215_20:
  3291  064E                     i1l1671:
  3292  064E  0A39               	incf	___fldiv@aexp,w
  3293  064F  1D03               	btfss	3,2
  3294  0650  2E52               	goto	u216_21
  3295  0651  2E53               	goto	u216_20
  3296  0652                     u216_21:
  3297  0652  2E5B               	goto	i1l1675
  3298  0653                     u216_20:
  3299  0653                     i1l1673:
  3300  0653  3000               	movlw	0
  3301  0654  00A3               	movwf	___fldiv@a+3
  3302  0655  3000               	movlw	0
  3303  0656  00A2               	movwf	___fldiv@a+2
  3304  0657  3000               	movlw	0
  3305  0658  00A1               	movwf	___fldiv@a+1
  3306  0659  3000               	movlw	0
  3307  065A  00A0               	movwf	___fldiv@a
  3308  065B                     i1l1675:
  3309  065B  17A2               	bsf	___fldiv@a+2,7
  3310  065C                     i1l1677:
  3311  065C  01A3               	clrf	___fldiv@a+3
  3312  065D  2E66               	goto	i1l536
  3313  065E                     i1l1679:
  3314  065E  3000               	movlw	0
  3315  065F  00A3               	movwf	___fldiv@a+3
  3316  0660  3000               	movlw	0
  3317  0661  00A2               	movwf	___fldiv@a+2
  3318  0662  3000               	movlw	0
  3319  0663  00A1               	movwf	___fldiv@a+1
  3320  0664  3000               	movlw	0
  3321  0665  00A0               	movwf	___fldiv@a
  3322  0666                     i1l536:
  3323  0666  0823               	movf	___fldiv@a+3,w
  3324  0667  0422               	iorwf	___fldiv@a+2,w
  3325  0668  0421               	iorwf	___fldiv@a+1,w
  3326  0669  0420               	iorwf	___fldiv@a,w
  3327  066A  1D03               	skipz
  3328  066B  2E6D               	goto	u217_21
  3329  066C  2E6E               	goto	u217_20
  3330  066D                     u217_21:
  3331  066D  2E87               	goto	i1l1689
  3332  066E                     u217_20:
  3333  066E                     i1l1681:
  3334  066E  3000               	movlw	0
  3335  066F  00A7               	movwf	___fldiv@b+3
  3336  0670  3000               	movlw	0
  3337  0671  00A6               	movwf	___fldiv@b+2
  3338  0672  3000               	movlw	0
  3339  0673  00A5               	movwf	___fldiv@b+1
  3340  0674  3000               	movlw	0
  3341  0675  00A4               	movwf	___fldiv@b
  3342  0676  3080               	movlw	128
  3343  0677  04A6               	iorwf	___fldiv@b+2,f
  3344  0678  307F               	movlw	127
  3345  0679  04A7               	iorwf	___fldiv@b+3,f
  3346  067A                     i1l1683:
  3347  067A  0831               	movf	___fldiv@sign,w
  3348  067B  00A8               	movwf	??___fldiv
  3349  067C  0828               	movf	??___fldiv,w
  3350  067D  04A7               	iorwf	___fldiv@b+3,f
  3351  067E                     i1l1685:
  3352  067E  0827               	movf	___fldiv@b+3,w
  3353  067F  00A3               	movwf	?___fldiv+3
  3354  0680  0826               	movf	___fldiv@b+2,w
  3355  0681  00A2               	movwf	?___fldiv+2
  3356  0682  0825               	movf	___fldiv@b+1,w
  3357  0683  00A1               	movwf	?___fldiv+1
  3358  0684  0824               	movf	___fldiv@b,w
  3359  0685  00A0               	movwf	?___fldiv
  3360  0686  2FE6               	goto	i1l538
  3361  0687                     i1l1689:
  3362  0687  0838               	movf	___fldiv@bexp,w
  3363  0688  1D03               	btfss	3,2
  3364  0689  2E8B               	goto	u218_21
  3365  068A  2E8C               	goto	u218_20
  3366  068B                     u218_21:
  3367  068B  2E95               	goto	i1l1695
  3368  068C                     u218_20:
  3369  068C                     i1l1691:
  3370  068C  3000               	movlw	0
  3371  068D  00A3               	movwf	?___fldiv+3
  3372  068E  3000               	movlw	0
  3373  068F  00A2               	movwf	?___fldiv+2
  3374  0690  3000               	movlw	0
  3375  0691  00A1               	movwf	?___fldiv+1
  3376  0692  3000               	movlw	0
  3377  0693  00A0               	movwf	?___fldiv
  3378  0694  2FE6               	goto	i1l538
  3379  0695                     i1l1695:
  3380  0695  0838               	movf	___fldiv@bexp,w
  3381  0696  00A8               	movwf	??___fldiv
  3382  0697  01A9               	clrf	??___fldiv+1
  3383  0698  0829               	movf	??___fldiv+1,w
  3384  0699  00AB               	movwf	??___fldiv+3
  3385  069A  0839               	movf	___fldiv@aexp,w
  3386  069B  0228               	subwf	??___fldiv,w
  3387  069C  00AA               	movwf	??___fldiv+2
  3388  069D  1C03               	skipc
  3389  069E  03AB               	decf	??___fldiv+3,f
  3390  069F  082A               	movf	??___fldiv+2,w
  3391  06A0  3E7F               	addlw	127
  3392  06A1  00B2               	movwf	___fldiv@new_exp
  3393  06A2  082B               	movf	??___fldiv+3,w
  3394  06A3  1803               	skipnc
  3395  06A4  3E01               	addlw	1
  3396  06A5  3E00               	addlw	0
  3397  06A6  00B3               	movwf	___fldiv@new_exp+1
  3398  06A7                     i1l1697:
  3399  06A7  0827               	movf	___fldiv@b+3,w
  3400  06A8  00B0               	movwf	___fldiv@rem+3
  3401  06A9  0826               	movf	___fldiv@b+2,w
  3402  06AA  00AF               	movwf	___fldiv@rem+2
  3403  06AB  0825               	movf	___fldiv@b+1,w
  3404  06AC  00AE               	movwf	___fldiv@rem+1
  3405  06AD  0824               	movf	___fldiv@b,w
  3406  06AE  00AD               	movwf	___fldiv@rem
  3407  06AF                     i1l1699:
  3408  06AF  3000               	movlw	0
  3409  06B0  00A7               	movwf	___fldiv@b+3
  3410  06B1  3000               	movlw	0
  3411  06B2  00A6               	movwf	___fldiv@b+2
  3412  06B3  3000               	movlw	0
  3413  06B4  00A5               	movwf	___fldiv@b+1
  3414  06B5  3000               	movlw	0
  3415  06B6  00A4               	movwf	___fldiv@b
  3416  06B7                     i1l1701:
  3417  06B7  3000               	movlw	0
  3418  06B8  00B7               	movwf	___fldiv@grs+3
  3419  06B9  3000               	movlw	0
  3420  06BA  00B6               	movwf	___fldiv@grs+2
  3421  06BB  3000               	movlw	0
  3422  06BC  00B5               	movwf	___fldiv@grs+1
  3423  06BD  3000               	movlw	0
  3424  06BE  00B4               	movwf	___fldiv@grs
  3425  06BF                     i1l1703:
  3426  06BF  01B9               	clrf	___fldiv@aexp
  3427  06C0  2F0B               	goto	i1l1723
  3428  06C1                     i1l1705:
  3429  06C1  0839               	movf	___fldiv@aexp,w
  3430  06C2  1903               	btfsc	3,2
  3431  06C3  2EC5               	goto	u219_21
  3432  06C4  2EC6               	goto	u219_20
  3433  06C5                     u219_21:
  3434  06C5  2EE6               	goto	i1l1715
  3435  06C6                     u219_20:
  3436  06C6                     i1l1707:
  3437  06C6  3001               	movlw	1
  3438  06C7  00A8               	movwf	??___fldiv
  3439  06C8                     u220_25:
  3440  06C8  1003               	clrc
  3441  06C9  0DAD               	rlf	___fldiv@rem,f
  3442  06CA  0DAE               	rlf	___fldiv@rem+1,f
  3443  06CB  0DAF               	rlf	___fldiv@rem+2,f
  3444  06CC  0DB0               	rlf	___fldiv@rem+3,f
  3445  06CD  0BA8               	decfsz	??___fldiv,f
  3446  06CE  2EC8               	goto	u220_25
  3447  06CF  3001               	movlw	1
  3448  06D0  00A8               	movwf	??___fldiv
  3449  06D1                     u221_25:
  3450  06D1  1003               	clrc
  3451  06D2  0DA4               	rlf	___fldiv@b,f
  3452  06D3  0DA5               	rlf	___fldiv@b+1,f
  3453  06D4  0DA6               	rlf	___fldiv@b+2,f
  3454  06D5  0DA7               	rlf	___fldiv@b+3,f
  3455  06D6  0BA8               	decfsz	??___fldiv,f
  3456  06D7  2ED1               	goto	u221_25
  3457  06D8                     i1l1709:
  3458  06D8  1FB7               	btfss	___fldiv@grs+3,7
  3459  06D9  2EDB               	goto	u222_21
  3460  06DA  2EDC               	goto	u222_20
  3461  06DB                     u222_21:
  3462  06DB  2EDD               	goto	i1l1713
  3463  06DC                     u222_20:
  3464  06DC                     i1l1711:
  3465  06DC  1424               	bsf	___fldiv@b,0
  3466  06DD                     i1l1713:
  3467  06DD  3001               	movlw	1
  3468  06DE  00A8               	movwf	??___fldiv
  3469  06DF                     u223_25:
  3470  06DF  1003               	clrc
  3471  06E0  0DB4               	rlf	___fldiv@grs,f
  3472  06E1  0DB5               	rlf	___fldiv@grs+1,f
  3473  06E2  0DB6               	rlf	___fldiv@grs+2,f
  3474  06E3  0DB7               	rlf	___fldiv@grs+3,f
  3475  06E4  0BA8               	decfsz	??___fldiv,f
  3476  06E5  2EDF               	goto	u223_25
  3477  06E6                     i1l1715:
  3478  06E6  0823               	movf	___fldiv@a+3,w
  3479  06E7  0230               	subwf	___fldiv@rem+3,w
  3480  06E8  1D03               	skipz
  3481  06E9  2EF4               	goto	u224_25
  3482  06EA  0822               	movf	___fldiv@a+2,w
  3483  06EB  022F               	subwf	___fldiv@rem+2,w
  3484  06EC  1D03               	skipz
  3485  06ED  2EF4               	goto	u224_25
  3486  06EE  0821               	movf	___fldiv@a+1,w
  3487  06EF  022E               	subwf	___fldiv@rem+1,w
  3488  06F0  1D03               	skipz
  3489  06F1  2EF4               	goto	u224_25
  3490  06F2  0820               	movf	___fldiv@a,w
  3491  06F3  022D               	subwf	___fldiv@rem,w
  3492  06F4                     u224_25:
  3493  06F4  1C03               	skipc
  3494  06F5  2EF7               	goto	u224_21
  3495  06F6  2EF8               	goto	u224_20
  3496  06F7                     u224_21:
  3497  06F7  2F07               	goto	i1l1721
  3498  06F8                     u224_20:
  3499  06F8                     i1l1717:
  3500  06F8  1737               	bsf	___fldiv@grs+3,6
  3501  06F9                     i1l1719:
  3502  06F9  0820               	movf	___fldiv@a,w
  3503  06FA  02AD               	subwf	___fldiv@rem,f
  3504  06FB  0821               	movf	___fldiv@a+1,w
  3505  06FC  1C03               	skipc
  3506  06FD  0F21               	incfsz	___fldiv@a+1,w
  3507  06FE  02AE               	subwf	___fldiv@rem+1,f
  3508  06FF  0822               	movf	___fldiv@a+2,w
  3509  0700  1C03               	skipc
  3510  0701  0F22               	incfsz	___fldiv@a+2,w
  3511  0702  02AF               	subwf	___fldiv@rem+2,f
  3512  0703  0823               	movf	___fldiv@a+3,w
  3513  0704  1C03               	skipc
  3514  0705  0F23               	incfsz	___fldiv@a+3,w
  3515  0706  02B0               	subwf	___fldiv@rem+3,f
  3516  0707                     i1l1721:
  3517  0707  3001               	movlw	1
  3518  0708  00A8               	movwf	??___fldiv
  3519  0709  0828               	movf	??___fldiv,w
  3520  070A  07B9               	addwf	___fldiv@aexp,f
  3521  070B                     i1l1723:
  3522  070B  301A               	movlw	26
  3523  070C  0239               	subwf	___fldiv@aexp,w
  3524  070D  1C03               	skipc
  3525  070E  2F10               	goto	u225_21
  3526  070F  2F11               	goto	u225_20
  3527  0710                     u225_21:
  3528  0710  2EC1               	goto	i1l1705
  3529  0711                     u225_20:
  3530  0711                     i1l1725:
  3531  0711  0830               	movf	___fldiv@rem+3,w
  3532  0712  042F               	iorwf	___fldiv@rem+2,w
  3533  0713  042E               	iorwf	___fldiv@rem+1,w
  3534  0714  042D               	iorwf	___fldiv@rem,w
  3535  0715  1903               	skipnz
  3536  0716  2F18               	goto	u226_21
  3537  0717  2F19               	goto	u226_20
  3538  0718                     u226_21:
  3539  0718  2F38               	goto	i1l1739
  3540  0719                     u226_20:
  3541  0719                     i1l1727:
  3542  0719  1434               	bsf	___fldiv@grs,0
  3543  071A  2F38               	goto	i1l1739
  3544  071B                     i1l1729:
  3545  071B  3001               	movlw	1
  3546  071C  00A8               	movwf	??___fldiv
  3547  071D                     u227_25:
  3548  071D  1003               	clrc
  3549  071E  0DA4               	rlf	___fldiv@b,f
  3550  071F  0DA5               	rlf	___fldiv@b+1,f
  3551  0720  0DA6               	rlf	___fldiv@b+2,f
  3552  0721  0DA7               	rlf	___fldiv@b+3,f
  3553  0722  0BA8               	decfsz	??___fldiv,f
  3554  0723  2F1D               	goto	u227_25
  3555  0724                     i1l1731:
  3556  0724  1FB7               	btfss	___fldiv@grs+3,7
  3557  0725  2F27               	goto	u228_21
  3558  0726  2F28               	goto	u228_20
  3559  0727                     u228_21:
  3560  0727  2F29               	goto	i1l1735
  3561  0728                     u228_20:
  3562  0728                     i1l1733:
  3563  0728  1424               	bsf	___fldiv@b,0
  3564  0729                     i1l1735:
  3565  0729  3001               	movlw	1
  3566  072A  00A8               	movwf	??___fldiv
  3567  072B                     u229_25:
  3568  072B  1003               	clrc
  3569  072C  0DB4               	rlf	___fldiv@grs,f
  3570  072D  0DB5               	rlf	___fldiv@grs+1,f
  3571  072E  0DB6               	rlf	___fldiv@grs+2,f
  3572  072F  0DB7               	rlf	___fldiv@grs+3,f
  3573  0730  0BA8               	decfsz	??___fldiv,f
  3574  0731  2F2B               	goto	u229_25
  3575  0732                     i1l1737:
  3576  0732  30FF               	movlw	255
  3577  0733  07B2               	addwf	___fldiv@new_exp,f
  3578  0734  1803               	skipnc
  3579  0735  0AB3               	incf	___fldiv@new_exp+1,f
  3580  0736  30FF               	movlw	255
  3581  0737  07B3               	addwf	___fldiv@new_exp+1,f
  3582  0738                     i1l1739:
  3583  0738  1FA6               	btfss	___fldiv@b+2,7
  3584  0739  2F3B               	goto	u230_21
  3585  073A  2F3C               	goto	u230_20
  3586  073B                     u230_21:
  3587  073B  2F1B               	goto	i1l1729
  3588  073C                     u230_20:
  3589  073C                     i1l1741:
  3590  073C  01B9               	clrf	___fldiv@aexp
  3591  073D                     i1l1743:
  3592  073D  1FB7               	btfss	___fldiv@grs+3,7
  3593  073E  2F40               	goto	u231_21
  3594  073F  2F41               	goto	u231_20
  3595  0740                     u231_21:
  3596  0740  2F5D               	goto	i1l1751
  3597  0741                     u231_20:
  3598  0741                     i1l1745:
  3599  0741  30FF               	movlw	255
  3600  0742  0534               	andwf	___fldiv@grs,w
  3601  0743  00A8               	movwf	??___fldiv
  3602  0744  30FF               	movlw	255
  3603  0745  0535               	andwf	___fldiv@grs+1,w
  3604  0746  00A9               	movwf	??___fldiv+1
  3605  0747  30FF               	movlw	255
  3606  0748  0536               	andwf	___fldiv@grs+2,w
  3607  0749  00AA               	movwf	??___fldiv+2
  3608  074A  307F               	movlw	127
  3609  074B  0537               	andwf	___fldiv@grs+3,w
  3610  074C  00AB               	movwf	??___fldiv+3
  3611  074D  082B               	movf	??___fldiv+3,w
  3612  074E  042A               	iorwf	??___fldiv+2,w
  3613  074F  0429               	iorwf	??___fldiv+1,w
  3614  0750  0428               	iorwf	??___fldiv,w
  3615  0751  1903               	skipnz
  3616  0752  2F54               	goto	u232_21
  3617  0753  2F55               	goto	u232_20
  3618  0754                     u232_21:
  3619  0754  2F58               	goto	i1l552
  3620  0755                     u232_20:
  3621  0755                     i1l1747:
  3622  0755  01B9               	clrf	___fldiv@aexp
  3623  0756  0AB9               	incf	___fldiv@aexp,f
  3624  0757  2F5D               	goto	i1l1751
  3625  0758                     i1l552:
  3626  0758  1C24               	btfss	___fldiv@b,0
  3627  0759  2F5B               	goto	u233_21
  3628  075A  2F5C               	goto	u233_20
  3629  075B                     u233_21:
  3630  075B  2F5D               	goto	i1l1751
  3631  075C                     u233_20:
  3632  075C  2F55               	goto	i1l1747
  3633  075D                     i1l1751:
  3634  075D  0839               	movf	___fldiv@aexp,w
  3635  075E  1903               	btfsc	3,2
  3636  075F  2F61               	goto	u234_21
  3637  0760  2F62               	goto	u234_20
  3638  0761                     u234_21:
  3639  0761  2F93               	goto	i1l1761
  3640  0762                     u234_20:
  3641  0762                     i1l1753:
  3642  0762  3001               	movlw	1
  3643  0763  07A4               	addwf	___fldiv@b,f
  3644  0764  3000               	movlw	0
  3645  0765  1803               	skipnc
  3646  0766  3001               	movlw	1
  3647  0767  07A5               	addwf	___fldiv@b+1,f
  3648  0768  3000               	movlw	0
  3649  0769  1803               	skipnc
  3650  076A  3001               	movlw	1
  3651  076B  07A6               	addwf	___fldiv@b+2,f
  3652  076C  3000               	movlw	0
  3653  076D  1803               	skipnc
  3654  076E  3001               	movlw	1
  3655  076F  07A7               	addwf	___fldiv@b+3,f
  3656  0770                     i1l1755:
  3657  0770  1C27               	btfss	___fldiv@b+3,0
  3658  0771  2F73               	goto	u235_21
  3659  0772  2F74               	goto	u235_20
  3660  0773                     u235_21:
  3661  0773  2F93               	goto	i1l1761
  3662  0774                     u235_20:
  3663  0774                     i1l1757:
  3664  0774  0824               	movf	___fldiv@b,w
  3665  0775  00A8               	movwf	??___fldiv
  3666  0776  0825               	movf	___fldiv@b+1,w
  3667  0777  00A9               	movwf	??___fldiv+1
  3668  0778  0826               	movf	___fldiv@b+2,w
  3669  0779  00AA               	movwf	??___fldiv+2
  3670  077A  0827               	movf	___fldiv@b+3,w
  3671  077B  00AB               	movwf	??___fldiv+3
  3672  077C  3001               	movlw	1
  3673  077D  00AC               	movwf	??___fldiv+4
  3674  077E                     u236_25:
  3675  077E  0D2B               	rlf	??___fldiv+3,w
  3676  077F  0CAB               	rrf	??___fldiv+3,f
  3677  0780  0CAA               	rrf	??___fldiv+2,f
  3678  0781  0CA9               	rrf	??___fldiv+1,f
  3679  0782  0CA8               	rrf	??___fldiv,f
  3680  0783                     u236_20:
  3681  0783  0BAC               	decfsz	??___fldiv+4,f
  3682  0784  2F7E               	goto	u236_25
  3683  0785  082B               	movf	??___fldiv+3,w
  3684  0786  00A7               	movwf	___fldiv@b+3
  3685  0787  082A               	movf	??___fldiv+2,w
  3686  0788  00A6               	movwf	___fldiv@b+2
  3687  0789  0829               	movf	??___fldiv+1,w
  3688  078A  00A5               	movwf	___fldiv@b+1
  3689  078B  0828               	movf	??___fldiv,w
  3690  078C  00A4               	movwf	___fldiv@b
  3691  078D                     i1l1759:
  3692  078D  3001               	movlw	1
  3693  078E  07B2               	addwf	___fldiv@new_exp,f
  3694  078F  1803               	skipnc
  3695  0790  0AB3               	incf	___fldiv@new_exp+1,f
  3696  0791  3000               	movlw	0
  3697  0792  07B3               	addwf	___fldiv@new_exp+1,f
  3698  0793                     i1l1761:
  3699  0793  0833               	movf	___fldiv@new_exp+1,w
  3700  0794  3A80               	xorlw	128
  3701  0795  00FF               	movwf	btemp+1
  3702  0796  3080               	movlw	128
  3703  0797  027F               	subwf	btemp+1,w
  3704  0798  1D03               	skipz
  3705  0799  2F9C               	goto	u237_25
  3706  079A  30FF               	movlw	255
  3707  079B  0232               	subwf	___fldiv@new_exp,w
  3708  079C                     u237_25:
  3709  079C  1C03               	skipc
  3710  079D  2F9F               	goto	u237_21
  3711  079E  2FA0               	goto	u237_20
  3712  079F                     u237_21:
  3713  079F  2FAE               	goto	i1l1765
  3714  07A0                     u237_20:
  3715  07A0                     i1l1763:
  3716  07A0  30FF               	movlw	255
  3717  07A1  1283               	bcf	3,5	;RP0=0, select bank0
  3718  07A2  1303               	bcf	3,6	;RP1=0, select bank0
  3719  07A3  00B2               	movwf	___fldiv@new_exp
  3720  07A4  3000               	movlw	0
  3721  07A5  00B3               	movwf	___fldiv@new_exp+1
  3722  07A6  3000               	movlw	0
  3723  07A7  00A7               	movwf	___fldiv@b+3
  3724  07A8  3000               	movlw	0
  3725  07A9  00A6               	movwf	___fldiv@b+2
  3726  07AA  3000               	movlw	0
  3727  07AB  00A5               	movwf	___fldiv@b+1
  3728  07AC  3000               	movlw	0
  3729  07AD  00A4               	movwf	___fldiv@b
  3730  07AE                     i1l1765:
  3731  07AE  1283               	bcf	3,5	;RP0=0, select bank0
  3732  07AF  1303               	bcf	3,6	;RP1=0, select bank0
  3733  07B0  0833               	movf	___fldiv@new_exp+1,w
  3734  07B1  3A80               	xorlw	128
  3735  07B2  00FF               	movwf	btemp+1
  3736  07B3  3080               	movlw	128
  3737  07B4  027F               	subwf	btemp+1,w
  3738  07B5  1D03               	skipz
  3739  07B6  2FB9               	goto	u238_25
  3740  07B7  3001               	movlw	1
  3741  07B8  0232               	subwf	___fldiv@new_exp,w
  3742  07B9                     u238_25:
  3743  07B9  1803               	skipnc
  3744  07BA  2FBC               	goto	u238_21
  3745  07BB  2FBD               	goto	u238_20
  3746  07BC                     u238_21:
  3747  07BC  2FCA               	goto	i1l558
  3748  07BD                     u238_20:
  3749  07BD                     i1l1767:
  3750  07BD  1283               	bcf	3,5	;RP0=0, select bank0
  3751  07BE  1303               	bcf	3,6	;RP1=0, select bank0
  3752  07BF  01B2               	clrf	___fldiv@new_exp
  3753  07C0  01B3               	clrf	___fldiv@new_exp+1
  3754  07C1                     i1l1769:
  3755  07C1  3000               	movlw	0
  3756  07C2  00A7               	movwf	___fldiv@b+3
  3757  07C3  3000               	movlw	0
  3758  07C4  00A6               	movwf	___fldiv@b+2
  3759  07C5  3000               	movlw	0
  3760  07C6  00A5               	movwf	___fldiv@b+1
  3761  07C7  3000               	movlw	0
  3762  07C8  00A4               	movwf	___fldiv@b
  3763  07C9                     i1l1771:
  3764  07C9  01B1               	clrf	___fldiv@sign
  3765  07CA                     i1l558:
  3766  07CA  1283               	bcf	3,5	;RP0=0, select bank0
  3767  07CB  1303               	bcf	3,6	;RP1=0, select bank0
  3768  07CC  0832               	movf	___fldiv@new_exp,w
  3769  07CD  00A8               	movwf	??___fldiv
  3770  07CE  0828               	movf	??___fldiv,w
  3771  07CF  00B8               	movwf	___fldiv@bexp
  3772  07D0                     i1l1773:
  3773  07D0  1C38               	btfss	___fldiv@bexp,0
  3774  07D1  2FD3               	goto	u239_21
  3775  07D2  2FD4               	goto	u239_20
  3776  07D3                     u239_21:
  3777  07D3  2FD6               	goto	i1l1777
  3778  07D4                     u239_20:
  3779  07D4                     i1l1775:
  3780  07D4  17A6               	bsf	___fldiv@b+2,7
  3781  07D5  2FDA               	goto	i1l560
  3782  07D6                     i1l1777:
  3783  07D6  307F               	movlw	127
  3784  07D7  00A8               	movwf	??___fldiv
  3785  07D8  0828               	movf	??___fldiv,w
  3786  07D9  05A6               	andwf	___fldiv@b+2,f
  3787  07DA                     i1l560:
  3788  07DA  0838               	movf	___fldiv@bexp,w
  3789  07DB  00A8               	movwf	??___fldiv
  3790  07DC  1003               	clrc
  3791  07DD  0C28               	rrf	??___fldiv,w
  3792  07DE  00A9               	movwf	??___fldiv+1
  3793  07DF  0829               	movf	??___fldiv+1,w
  3794  07E0  00A7               	movwf	___fldiv@b+3
  3795  07E1  0831               	movf	___fldiv@sign,w
  3796  07E2  00A8               	movwf	??___fldiv
  3797  07E3  0828               	movf	??___fldiv,w
  3798  07E4  04A7               	iorwf	___fldiv@b+3,f
  3799  07E5  2E7E               	goto	i1l1685
  3800  07E6                     i1l538:
  3801  07E6  0008               	return
  3802  07E7                     __end_of___fldiv:
  3803                           
  3804                           	psect	text9
  3805  0382                     __ptext9:	
  3806 ;; *************** function ___fladd *****************
  3807 ;; Defined at:
  3808 ;;		line 10 in file "C:\Program Files\Microchip\xc8\v2.35\pic\sources\c90\common\sprcadd.c"
  3809 ;; Parameters:    Size  Location     Type
  3810 ;;  b               4   52[BANK0 ] unsigned char 
  3811 ;;  a               4   56[BANK0 ] unsigned char 
  3812 ;; Auto vars:     Size  Location     Type
  3813 ;;  grs             1   71[BANK0 ] unsigned char 
  3814 ;;  bexp            1   70[BANK0 ] unsigned char 
  3815 ;;  aexp            1   69[BANK0 ] unsigned char 
  3816 ;;  signs           1   68[BANK0 ] unsigned char 
  3817 ;; Return value:  Size  Location     Type
  3818 ;;                  4   52[BANK0 ] unsigned char 
  3819 ;; Registers used:
  3820 ;;		wreg, status,2, status,0, btemp+1
  3821 ;; Tracked objects:
  3822 ;;		On entry : 0/0
  3823 ;;		On exit  : 0/0
  3824 ;;		Unchanged: 0/0
  3825 ;; Data sizes:     COMMON   BANK0   BANK1   BANK3   BANK2
  3826 ;;      Params:         0       8       0       0       0
  3827 ;;      Locals:         0       4       0       0       0
  3828 ;;      Temps:          0       8       0       0       0
  3829 ;;      Totals:         0      20       0       0       0
  3830 ;;Total ram usage:       20 bytes
  3831 ;; Hardware stack levels used: 1
  3832 ;; This function calls:
  3833 ;;		Nothing
  3834 ;; This function is called by:
  3835 ;;		_map
  3836 ;; This function uses a non-reentrant model
  3837 ;;
  3838                           
  3839  0382                     ___fladd:	
  3840                           ;psect for function ___fladd
  3841                           
  3842  0382                     i1l1447:	
  3843                           ;incstack = 0
  3844                           ; Regs used in ___fladd: [wreg+status,2+status,0+btemp+1]
  3845                           
  3846  0382  1283               	bcf	3,5	;RP0=0, select bank0
  3847  0383  1303               	bcf	3,6	;RP1=0, select bank0
  3848  0384  0857               	movf	___fladd@b+3,w
  3849  0385  3980               	andlw	128
  3850  0386  00DC               	movwf	??___fladd
  3851  0387  085C               	movf	??___fladd,w
  3852  0388  00E4               	movwf	___fladd@signs
  3853  0389                     i1l1449:
  3854  0389  0857               	movf	___fladd@b+3,w
  3855  038A  00DC               	movwf	??___fladd
  3856  038B  075C               	addwf	??___fladd,w
  3857  038C  00DD               	movwf	??___fladd+1
  3858  038D  085D               	movf	??___fladd+1,w
  3859  038E  00E6               	movwf	___fladd@bexp
  3860  038F                     i1l1451:
  3861  038F  1FD6               	btfss	___fladd@b+2,7
  3862  0390  2B92               	goto	u165_21
  3863  0391  2B93               	goto	u165_20
  3864  0392                     u165_21:
  3865  0392  2B94               	goto	i1l1455
  3866  0393                     u165_20:
  3867  0393                     i1l1453:
  3868  0393  1466               	bsf	___fladd@bexp,0
  3869  0394                     i1l1455:
  3870  0394  0866               	movf	___fladd@bexp,w
  3871  0395  1903               	btfsc	3,2
  3872  0396  2B98               	goto	u166_21
  3873  0397  2B99               	goto	u166_20
  3874  0398                     u166_21:
  3875  0398  2BA9               	goto	i1l1465
  3876  0399                     u166_20:
  3877  0399                     i1l1457:
  3878  0399  0A66               	incf	___fladd@bexp,w
  3879  039A  1D03               	btfss	3,2
  3880  039B  2B9D               	goto	u167_21
  3881  039C  2B9E               	goto	u167_20
  3882  039D                     u167_21:
  3883  039D  2BA6               	goto	i1l1461
  3884  039E                     u167_20:
  3885  039E                     i1l1459:
  3886  039E  3000               	movlw	0
  3887  039F  00D7               	movwf	___fladd@b+3
  3888  03A0  3000               	movlw	0
  3889  03A1  00D6               	movwf	___fladd@b+2
  3890  03A2  3000               	movlw	0
  3891  03A3  00D5               	movwf	___fladd@b+1
  3892  03A4  3000               	movlw	0
  3893  03A5  00D4               	movwf	___fladd@b
  3894  03A6                     i1l1461:
  3895  03A6  17D6               	bsf	___fladd@b+2,7
  3896  03A7                     i1l1463:
  3897  03A7  01D7               	clrf	___fladd@b+3
  3898  03A8  2BB1               	goto	i1l1467
  3899  03A9                     i1l1465:
  3900  03A9  3000               	movlw	0
  3901  03AA  00D7               	movwf	___fladd@b+3
  3902  03AB  3000               	movlw	0
  3903  03AC  00D6               	movwf	___fladd@b+2
  3904  03AD  3000               	movlw	0
  3905  03AE  00D5               	movwf	___fladd@b+1
  3906  03AF  3000               	movlw	0
  3907  03B0  00D4               	movwf	___fladd@b
  3908  03B1                     i1l1467:
  3909  03B1  085B               	movf	___fladd@a+3,w
  3910  03B2  3980               	andlw	128
  3911  03B3  00DC               	movwf	??___fladd
  3912  03B4  085C               	movf	??___fladd,w
  3913  03B5  00E5               	movwf	___fladd@aexp
  3914  03B6                     i1l1469:
  3915  03B6  0865               	movf	___fladd@aexp,w
  3916  03B7  0664               	xorwf	___fladd@signs,w
  3917  03B8  1903               	skipnz
  3918  03B9  2BBB               	goto	u168_21
  3919  03BA  2BBC               	goto	u168_20
  3920  03BB                     u168_21:
  3921  03BB  2BBD               	goto	i1l1473
  3922  03BC                     u168_20:
  3923  03BC                     i1l1471:
  3924  03BC  1764               	bsf	___fladd@signs,6
  3925  03BD                     i1l1473:
  3926  03BD  085B               	movf	___fladd@a+3,w
  3927  03BE  00DC               	movwf	??___fladd
  3928  03BF  075C               	addwf	??___fladd,w
  3929  03C0  00DD               	movwf	??___fladd+1
  3930  03C1  085D               	movf	??___fladd+1,w
  3931  03C2  00E5               	movwf	___fladd@aexp
  3932  03C3                     i1l1475:
  3933  03C3  1FDA               	btfss	___fladd@a+2,7
  3934  03C4  2BC6               	goto	u169_21
  3935  03C5  2BC7               	goto	u169_20
  3936  03C6                     u169_21:
  3937  03C6  2BC8               	goto	i1l1479
  3938  03C7                     u169_20:
  3939  03C7                     i1l1477:
  3940  03C7  1465               	bsf	___fladd@aexp,0
  3941  03C8                     i1l1479:
  3942  03C8  0865               	movf	___fladd@aexp,w
  3943  03C9  1903               	btfsc	3,2
  3944  03CA  2BCC               	goto	u170_21
  3945  03CB  2BCD               	goto	u170_20
  3946  03CC                     u170_21:
  3947  03CC  2BDD               	goto	i1l1489
  3948  03CD                     u170_20:
  3949  03CD                     i1l1481:
  3950  03CD  0A65               	incf	___fladd@aexp,w
  3951  03CE  1D03               	btfss	3,2
  3952  03CF  2BD1               	goto	u171_21
  3953  03D0  2BD2               	goto	u171_20
  3954  03D1                     u171_21:
  3955  03D1  2BDA               	goto	i1l1485
  3956  03D2                     u171_20:
  3957  03D2                     i1l1483:
  3958  03D2  3000               	movlw	0
  3959  03D3  00DB               	movwf	___fladd@a+3
  3960  03D4  3000               	movlw	0
  3961  03D5  00DA               	movwf	___fladd@a+2
  3962  03D6  3000               	movlw	0
  3963  03D7  00D9               	movwf	___fladd@a+1
  3964  03D8  3000               	movlw	0
  3965  03D9  00D8               	movwf	___fladd@a
  3966  03DA                     i1l1485:
  3967  03DA  17DA               	bsf	___fladd@a+2,7
  3968  03DB                     i1l1487:
  3969  03DB  01DB               	clrf	___fladd@a+3
  3970  03DC  2BE5               	goto	i1l480
  3971  03DD                     i1l1489:
  3972  03DD  3000               	movlw	0
  3973  03DE  00DB               	movwf	___fladd@a+3
  3974  03DF  3000               	movlw	0
  3975  03E0  00DA               	movwf	___fladd@a+2
  3976  03E1  3000               	movlw	0
  3977  03E2  00D9               	movwf	___fladd@a+1
  3978  03E3  3000               	movlw	0
  3979  03E4  00D8               	movwf	___fladd@a
  3980  03E5                     i1l480:
  3981  03E5  0866               	movf	___fladd@bexp,w
  3982  03E6  0265               	subwf	___fladd@aexp,w
  3983  03E7  1803               	skipnc
  3984  03E8  2BEA               	goto	u172_21
  3985  03E9  2BEB               	goto	u172_20
  3986  03EA                     u172_21:
  3987  03EA  2C2F               	goto	i1l1525
  3988  03EB                     u172_20:
  3989  03EB                     i1l1491:
  3990  03EB  1F64               	btfss	___fladd@signs,6
  3991  03EC  2BEE               	goto	u173_21
  3992  03ED  2BEF               	goto	u173_20
  3993  03EE                     u173_21:
  3994  03EE  2BF3               	goto	i1l1495
  3995  03EF                     u173_20:
  3996  03EF                     i1l1493:
  3997  03EF  3080               	movlw	128
  3998  03F0  00DC               	movwf	??___fladd
  3999  03F1  085C               	movf	??___fladd,w
  4000  03F2  06E4               	xorwf	___fladd@signs,f
  4001  03F3                     i1l1495:
  4002  03F3  0866               	movf	___fladd@bexp,w
  4003  03F4  00DC               	movwf	??___fladd
  4004  03F5  085C               	movf	??___fladd,w
  4005  03F6  00E7               	movwf	___fladd@grs
  4006  03F7                     i1l1497:
  4007  03F7  0865               	movf	___fladd@aexp,w
  4008  03F8  00DC               	movwf	??___fladd
  4009  03F9  085C               	movf	??___fladd,w
  4010  03FA  00E6               	movwf	___fladd@bexp
  4011  03FB                     i1l1499:
  4012  03FB  0867               	movf	___fladd@grs,w
  4013  03FC  00DC               	movwf	??___fladd
  4014  03FD  085C               	movf	??___fladd,w
  4015  03FE  00E5               	movwf	___fladd@aexp
  4016  03FF                     i1l1501:
  4017  03FF  0854               	movf	___fladd@b,w
  4018  0400  00DC               	movwf	??___fladd
  4019  0401  085C               	movf	??___fladd,w
  4020  0402  00E7               	movwf	___fladd@grs
  4021  0403                     i1l1503:
  4022  0403  0858               	movf	___fladd@a,w
  4023  0404  00DC               	movwf	??___fladd
  4024  0405  085C               	movf	??___fladd,w
  4025  0406  00D4               	movwf	___fladd@b
  4026  0407                     i1l1505:
  4027  0407  0867               	movf	___fladd@grs,w
  4028  0408  00DC               	movwf	??___fladd
  4029  0409  085C               	movf	??___fladd,w
  4030  040A  00D8               	movwf	___fladd@a
  4031  040B                     i1l1507:
  4032  040B  0855               	movf	___fladd@b+1,w
  4033  040C  00DC               	movwf	??___fladd
  4034  040D  085C               	movf	??___fladd,w
  4035  040E  00E7               	movwf	___fladd@grs
  4036  040F                     i1l1509:
  4037  040F  0859               	movf	___fladd@a+1,w
  4038  0410  00DC               	movwf	??___fladd
  4039  0411  085C               	movf	??___fladd,w
  4040  0412  00D5               	movwf	___fladd@b+1
  4041  0413                     i1l1511:
  4042  0413  0867               	movf	___fladd@grs,w
  4043  0414  00DC               	movwf	??___fladd
  4044  0415  085C               	movf	??___fladd,w
  4045  0416  00D9               	movwf	___fladd@a+1
  4046  0417                     i1l1513:
  4047  0417  0856               	movf	___fladd@b+2,w
  4048  0418  00DC               	movwf	??___fladd
  4049  0419  085C               	movf	??___fladd,w
  4050  041A  00E7               	movwf	___fladd@grs
  4051  041B                     i1l1515:
  4052  041B  085A               	movf	___fladd@a+2,w
  4053  041C  00DC               	movwf	??___fladd
  4054  041D  085C               	movf	??___fladd,w
  4055  041E  00D6               	movwf	___fladd@b+2
  4056  041F                     i1l1517:
  4057  041F  0867               	movf	___fladd@grs,w
  4058  0420  00DC               	movwf	??___fladd
  4059  0421  085C               	movf	??___fladd,w
  4060  0422  00DA               	movwf	___fladd@a+2
  4061  0423                     i1l1519:
  4062  0423  0857               	movf	___fladd@b+3,w
  4063  0424  00DC               	movwf	??___fladd
  4064  0425  085C               	movf	??___fladd,w
  4065  0426  00E7               	movwf	___fladd@grs
  4066  0427                     i1l1521:
  4067  0427  085B               	movf	___fladd@a+3,w
  4068  0428  00DC               	movwf	??___fladd
  4069  0429  085C               	movf	??___fladd,w
  4070  042A  00D7               	movwf	___fladd@b+3
  4071  042B                     i1l1523:
  4072  042B  0867               	movf	___fladd@grs,w
  4073  042C  00DC               	movwf	??___fladd
  4074  042D  085C               	movf	??___fladd,w
  4075  042E  00DB               	movwf	___fladd@a+3
  4076  042F                     i1l1525:
  4077  042F  01E7               	clrf	___fladd@grs
  4078  0430                     i1l1527:
  4079  0430  0865               	movf	___fladd@aexp,w
  4080  0431  00DC               	movwf	??___fladd
  4081  0432  01DD               	clrf	??___fladd+1
  4082  0433  085D               	movf	??___fladd+1,w
  4083  0434  00DF               	movwf	??___fladd+3
  4084  0435  0866               	movf	___fladd@bexp,w
  4085  0436  025C               	subwf	??___fladd,w
  4086  0437  00DE               	movwf	??___fladd+2
  4087  0438  1C03               	skipc
  4088  0439  03DF               	decf	??___fladd+3,f
  4089  043A  085F               	movf	??___fladd+3,w
  4090  043B  3A80               	xorlw	128
  4091  043C  00FF               	movwf	btemp+1
  4092  043D  3080               	movlw	128
  4093  043E  027F               	subwf	btemp+1,w
  4094  043F  1D03               	skipz
  4095  0440  2C43               	goto	u174_25
  4096  0441  301A               	movlw	26
  4097  0442  025E               	subwf	??___fladd+2,w
  4098  0443                     u174_25:
  4099  0443  1C03               	skipc
  4100  0444  2C46               	goto	u174_21
  4101  0445  2C47               	goto	u174_20
  4102  0446                     u174_21:
  4103  0446  2C84               	goto	i1l1543
  4104  0447                     u174_20:
  4105  0447                     i1l1529:
  4106  0447  1283               	bcf	3,5	;RP0=0, select bank0
  4107  0448  1303               	bcf	3,6	;RP1=0, select bank0
  4108  0449  0857               	movf	___fladd@b+3,w
  4109  044A  0456               	iorwf	___fladd@b+2,w
  4110  044B  0455               	iorwf	___fladd@b+1,w
  4111  044C  0454               	iorwf	___fladd@b,w
  4112  044D  1D03               	skipz
  4113  044E  2C50               	goto	u175_21
  4114  044F  2C52               	goto	u175_20
  4115  0450                     u175_21:
  4116  0450  3001               	movlw	1
  4117  0451  2C53               	goto	u176_20
  4118  0452                     u175_20:
  4119  0452  3000               	movlw	0
  4120  0453                     u176_20:
  4121  0453  00DC               	movwf	??___fladd
  4122  0454  085C               	movf	??___fladd,w
  4123  0455  00E7               	movwf	___fladd@grs
  4124  0456  3000               	movlw	0
  4125  0457  00D7               	movwf	___fladd@b+3
  4126  0458  3000               	movlw	0
  4127  0459  00D6               	movwf	___fladd@b+2
  4128  045A  3000               	movlw	0
  4129  045B  00D5               	movwf	___fladd@b+1
  4130  045C  3000               	movlw	0
  4131  045D  00D4               	movwf	___fladd@b
  4132  045E  0865               	movf	___fladd@aexp,w
  4133  045F  00DC               	movwf	??___fladd
  4134  0460  085C               	movf	??___fladd,w
  4135  0461  00E6               	movwf	___fladd@bexp
  4136  0462  2C8C               	goto	i1l484
  4137  0463                     i1l486:
  4138  0463  1C67               	btfss	___fladd@grs,0
  4139  0464  2C66               	goto	u177_21
  4140  0465  2C67               	goto	u177_20
  4141  0466                     u177_21:
  4142  0466  2C70               	goto	i1l1533
  4143  0467                     u177_20:
  4144  0467                     i1l1531:
  4145  0467  0867               	movf	___fladd@grs,w
  4146  0468  00DC               	movwf	??___fladd
  4147  0469  1003               	clrc
  4148  046A  0C5C               	rrf	??___fladd,w
  4149  046B  3801               	iorlw	1
  4150  046C  00DD               	movwf	??___fladd+1
  4151  046D  085D               	movf	??___fladd+1,w
  4152  046E  00E7               	movwf	___fladd@grs
  4153  046F  2C72               	goto	i1l1535
  4154  0470                     i1l1533:
  4155  0470  1003               	clrc
  4156  0471  0CE7               	rrf	___fladd@grs,f
  4157  0472                     i1l1535:
  4158  0472  1C54               	btfss	___fladd@b,0
  4159  0473  2C75               	goto	u178_21
  4160  0474  2C76               	goto	u178_20
  4161  0475                     u178_21:
  4162  0475  2C77               	goto	i1l1539
  4163  0476                     u178_20:
  4164  0476                     i1l1537:
  4165  0476  17E7               	bsf	___fladd@grs,7
  4166  0477                     i1l1539:
  4167  0477  3001               	movlw	1
  4168  0478  00DC               	movwf	??___fladd
  4169  0479                     u179_25:
  4170  0479  0D57               	rlf	___fladd@b+3,w
  4171  047A  0CD7               	rrf	___fladd@b+3,f
  4172  047B  0CD6               	rrf	___fladd@b+2,f
  4173  047C  0CD5               	rrf	___fladd@b+1,f
  4174  047D  0CD4               	rrf	___fladd@b,f
  4175  047E  0BDC               	decfsz	??___fladd& (0+127),f
  4176  047F  2C79               	goto	u179_25
  4177  0480                     i1l1541:
  4178  0480  3001               	movlw	1
  4179  0481  00DC               	movwf	??___fladd
  4180  0482  085C               	movf	??___fladd,w
  4181  0483  07E6               	addwf	___fladd@bexp,f
  4182  0484                     i1l1543:
  4183  0484  1283               	bcf	3,5	;RP0=0, select bank0
  4184  0485  1303               	bcf	3,6	;RP1=0, select bank0
  4185  0486  0865               	movf	___fladd@aexp,w
  4186  0487  0266               	subwf	___fladd@bexp,w
  4187  0488  1C03               	skipc
  4188  0489  2C8B               	goto	u180_21
  4189  048A  2C8C               	goto	u180_20
  4190  048B                     u180_21:
  4191  048B  2C63               	goto	i1l486
  4192  048C                     u180_20:
  4193  048C                     i1l484:
  4194  048C  1B64               	btfsc	___fladd@signs,6
  4195  048D  2C8F               	goto	u181_21
  4196  048E  2C90               	goto	u181_20
  4197  048F                     u181_21:
  4198  048F  2CDB               	goto	i1l1569
  4199  0490                     u181_20:
  4200  0490                     i1l1545:
  4201  0490  0866               	movf	___fladd@bexp,w
  4202  0491  1D03               	btfss	3,2
  4203  0492  2C94               	goto	u182_21
  4204  0493  2C95               	goto	u182_20
  4205  0494                     u182_21:
  4206  0494  2C9E               	goto	i1l1551
  4207  0495                     u182_20:
  4208  0495                     i1l1547:
  4209  0495  3000               	movlw	0
  4210  0496  00D7               	movwf	?___fladd+3
  4211  0497  3000               	movlw	0
  4212  0498  00D6               	movwf	?___fladd+2
  4213  0499  3000               	movlw	0
  4214  049A  00D5               	movwf	?___fladd+1
  4215  049B  3000               	movlw	0
  4216  049C  00D4               	movwf	?___fladd
  4217  049D  2E09               	goto	i1l493
  4218  049E                     i1l1551:
  4219  049E  0858               	movf	___fladd@a,w
  4220  049F  07D4               	addwf	___fladd@b,f
  4221  04A0  0859               	movf	___fladd@a+1,w
  4222  04A1  1103               	clrz
  4223  04A2  1803               	skipnc
  4224  04A3  3E01               	addlw	1
  4225  04A4  1903               	skipnz
  4226  04A5  2CA7               	goto	u183_21
  4227  04A6  07D5               	addwf	___fladd@b+1,f
  4228  04A7                     u183_21:
  4229  04A7  085A               	movf	___fladd@a+2,w
  4230  04A8  1103               	clrz
  4231  04A9  1803               	skipnc
  4232  04AA  3E01               	addlw	1
  4233  04AB  1903               	skipnz
  4234  04AC  2CAE               	goto	u183_22
  4235  04AD  07D6               	addwf	___fladd@b+2,f
  4236  04AE                     u183_22:
  4237  04AE  085B               	movf	___fladd@a+3,w
  4238  04AF  1103               	clrz
  4239  04B0  1803               	skipnc
  4240  04B1  3E01               	addlw	1
  4241  04B2  1903               	skipnz
  4242  04B3  2CB5               	goto	u183_23
  4243  04B4  07D7               	addwf	___fladd@b+3,f
  4244  04B5                     u183_23:
  4245  04B5                     i1l1553:
  4246  04B5  1C57               	btfss	___fladd@b+3,0
  4247  04B6  2CB8               	goto	u184_21
  4248  04B7  2CB9               	goto	u184_20
  4249  04B8                     u184_21:
  4250  04B8  2D8F               	goto	i1l1603
  4251  04B9                     u184_20:
  4252  04B9                     i1l1555:
  4253  04B9  1C67               	btfss	___fladd@grs,0
  4254  04BA  2CBC               	goto	u185_21
  4255  04BB  2CBD               	goto	u185_20
  4256  04BC                     u185_21:
  4257  04BC  2CC6               	goto	i1l1559
  4258  04BD                     u185_20:
  4259  04BD                     i1l1557:
  4260  04BD  0867               	movf	___fladd@grs,w
  4261  04BE  00DC               	movwf	??___fladd
  4262  04BF  1003               	clrc
  4263  04C0  0C5C               	rrf	??___fladd,w
  4264  04C1  3801               	iorlw	1
  4265  04C2  00DD               	movwf	??___fladd+1
  4266  04C3  085D               	movf	??___fladd+1,w
  4267  04C4  00E7               	movwf	___fladd@grs
  4268  04C5  2CC8               	goto	i1l1561
  4269  04C6                     i1l1559:
  4270  04C6  1003               	clrc
  4271  04C7  0CE7               	rrf	___fladd@grs,f
  4272  04C8                     i1l1561:
  4273  04C8  1C54               	btfss	___fladd@b,0
  4274  04C9  2CCB               	goto	u186_21
  4275  04CA  2CCC               	goto	u186_20
  4276  04CB                     u186_21:
  4277  04CB  2CCD               	goto	i1l1565
  4278  04CC                     u186_20:
  4279  04CC                     i1l1563:
  4280  04CC  17E7               	bsf	___fladd@grs,7
  4281  04CD                     i1l1565:
  4282  04CD  3001               	movlw	1
  4283  04CE  00DC               	movwf	??___fladd
  4284  04CF                     u187_25:
  4285  04CF  0D57               	rlf	___fladd@b+3,w
  4286  04D0  0CD7               	rrf	___fladd@b+3,f
  4287  04D1  0CD6               	rrf	___fladd@b+2,f
  4288  04D2  0CD5               	rrf	___fladd@b+1,f
  4289  04D3  0CD4               	rrf	___fladd@b,f
  4290  04D4  0BDC               	decfsz	??___fladd& (0+127),f
  4291  04D5  2CCF               	goto	u187_25
  4292  04D6                     i1l1567:
  4293  04D6  3001               	movlw	1
  4294  04D7  00DC               	movwf	??___fladd
  4295  04D8  085C               	movf	??___fladd,w
  4296  04D9  07E6               	addwf	___fladd@bexp,f
  4297  04DA  2D8F               	goto	i1l1603
  4298  04DB                     i1l1569:
  4299  04DB  0857               	movf	___fladd@b+3,w
  4300  04DC  3A80               	xorlw	128
  4301  04DD  00FF               	movwf	btemp+1
  4302  04DE  085B               	movf	___fladd@a+3,w
  4303  04DF  3A80               	xorlw	128
  4304  04E0  027F               	subwf	btemp+1,w
  4305  04E1  1D03               	skipz
  4306  04E2  2CED               	goto	u188_23
  4307  04E3  085A               	movf	___fladd@a+2,w
  4308  04E4  0256               	subwf	___fladd@b+2,w
  4309  04E5  1D03               	skipz
  4310  04E6  2CED               	goto	u188_23
  4311  04E7  0859               	movf	___fladd@a+1,w
  4312  04E8  0255               	subwf	___fladd@b+1,w
  4313  04E9  1D03               	skipz
  4314  04EA  2CED               	goto	u188_23
  4315  04EB  0858               	movf	___fladd@a,w
  4316  04EC  0254               	subwf	___fladd@b,w
  4317  04ED                     u188_23:
  4318  04ED  1803               	skipnc
  4319  04EE  2CF0               	goto	u188_21
  4320  04EF  2CF1               	goto	u188_20
  4321  04F0                     u188_21:
  4322  04F0  2D49               	goto	i1l1579
  4323  04F1                     u188_20:
  4324  04F1                     i1l1571:
  4325  04F1  30FF               	movlw	255
  4326  04F2  00DC               	movwf	??___fladd
  4327  04F3  30FF               	movlw	255
  4328  04F4  00DD               	movwf	??___fladd+1
  4329  04F5  30FF               	movlw	255
  4330  04F6  00DE               	movwf	??___fladd+2
  4331  04F7  30FF               	movlw	255
  4332  04F8  00DF               	movwf	??___fladd+3
  4333  04F9  0858               	movf	___fladd@a,w
  4334  04FA  00E0               	movwf	??___fladd+4
  4335  04FB  0859               	movf	___fladd@a+1,w
  4336  04FC  00E1               	movwf	??___fladd+5
  4337  04FD  085A               	movf	___fladd@a+2,w
  4338  04FE  00E2               	movwf	??___fladd+6
  4339  04FF  085B               	movf	___fladd@a+3,w
  4340  0500  00E3               	movwf	??___fladd+7
  4341  0501  0854               	movf	___fladd@b,w
  4342  0502  02E0               	subwf	??___fladd+4,f
  4343  0503  0855               	movf	___fladd@b+1,w
  4344  0504  1C03               	skipc
  4345  0505  0F55               	incfsz	___fladd@b+1,w
  4346  0506  2D08               	goto	u189_21
  4347  0507  2D09               	goto	u189_22
  4348  0508                     u189_21:
  4349  0508  02E1               	subwf	??___fladd+5,f
  4350  0509                     u189_22:
  4351  0509  0856               	movf	___fladd@b+2,w
  4352  050A  1C03               	skipc
  4353  050B  0F56               	incfsz	___fladd@b+2,w
  4354  050C  2D0E               	goto	u189_23
  4355  050D  2D0F               	goto	u189_24
  4356  050E                     u189_23:
  4357  050E  02E2               	subwf	??___fladd+6,f
  4358  050F                     u189_24:
  4359  050F  0857               	movf	___fladd@b+3,w
  4360  0510  1C03               	skipc
  4361  0511  0F57               	incfsz	___fladd@b+3,w
  4362  0512  2D14               	goto	u189_25
  4363  0513  2D15               	goto	u189_26
  4364  0514                     u189_25:
  4365  0514  02E3               	subwf	??___fladd+7,f
  4366  0515                     u189_26:
  4367  0515  0860               	movf	??___fladd+4,w
  4368  0516  07DC               	addwf	??___fladd,f
  4369  0517  0861               	movf	??___fladd+5,w
  4370  0518  1803               	skipnc
  4371  0519  0F61               	incfsz	??___fladd+5,w
  4372  051A  2D1C               	goto	u190_20
  4373  051B  2D1D               	goto	u190_21
  4374  051C                     u190_20:
  4375  051C  07DD               	addwf	??___fladd+1,f
  4376  051D                     u190_21:
  4377  051D  0862               	movf	??___fladd+6,w
  4378  051E  1803               	skipnc
  4379  051F  0F62               	incfsz	??___fladd+6,w
  4380  0520  2D22               	goto	u190_22
  4381  0521  2D23               	goto	u190_23
  4382  0522                     u190_22:
  4383  0522  07DE               	addwf	??___fladd+2,f
  4384  0523                     u190_23:
  4385  0523  0863               	movf	??___fladd+7,w
  4386  0524  1803               	skipnc
  4387  0525  0A63               	incf	??___fladd+7,w
  4388  0526  07DF               	addwf	??___fladd+3,f
  4389  0527  085F               	movf	??___fladd+3,w
  4390  0528  00D7               	movwf	___fladd@b+3
  4391  0529  085E               	movf	??___fladd+2,w
  4392  052A  00D6               	movwf	___fladd@b+2
  4393  052B  085D               	movf	??___fladd+1,w
  4394  052C  00D5               	movwf	___fladd@b+1
  4395  052D  085C               	movf	??___fladd,w
  4396  052E  00D4               	movwf	___fladd@b
  4397  052F                     i1l1573:
  4398  052F  3080               	movlw	128
  4399  0530  00DC               	movwf	??___fladd
  4400  0531  085C               	movf	??___fladd,w
  4401  0532  06E4               	xorwf	___fladd@signs,f
  4402  0533  09E7               	comf	___fladd@grs,f
  4403  0534  0AE7               	incf	___fladd@grs,f
  4404  0535                     i1l1575:
  4405  0535  0867               	movf	___fladd@grs,w
  4406  0536  1D03               	btfss	3,2
  4407  0537  2D39               	goto	u191_21
  4408  0538  2D3A               	goto	u191_20
  4409  0539                     u191_21:
  4410  0539  2D57               	goto	i1l501
  4411  053A                     u191_20:
  4412  053A                     i1l1577:
  4413  053A  3001               	movlw	1
  4414  053B  07D4               	addwf	___fladd@b,f
  4415  053C  3000               	movlw	0
  4416  053D  1803               	skipnc
  4417  053E  3001               	movlw	1
  4418  053F  07D5               	addwf	___fladd@b+1,f
  4419  0540  3000               	movlw	0
  4420  0541  1803               	skipnc
  4421  0542  3001               	movlw	1
  4422  0543  07D6               	addwf	___fladd@b+2,f
  4423  0544  3000               	movlw	0
  4424  0545  1803               	skipnc
  4425  0546  3001               	movlw	1
  4426  0547  07D7               	addwf	___fladd@b+3,f
  4427  0548  2D57               	goto	i1l501
  4428  0549                     i1l1579:
  4429  0549  0858               	movf	___fladd@a,w
  4430  054A  02D4               	subwf	___fladd@b,f
  4431  054B  0859               	movf	___fladd@a+1,w
  4432  054C  1C03               	skipc
  4433  054D  0F59               	incfsz	___fladd@a+1,w
  4434  054E  02D5               	subwf	___fladd@b+1,f
  4435  054F  085A               	movf	___fladd@a+2,w
  4436  0550  1C03               	skipc
  4437  0551  0F5A               	incfsz	___fladd@a+2,w
  4438  0552  02D6               	subwf	___fladd@b+2,f
  4439  0553  085B               	movf	___fladd@a+3,w
  4440  0554  1C03               	skipc
  4441  0555  0F5B               	incfsz	___fladd@a+3,w
  4442  0556  02D7               	subwf	___fladd@b+3,f
  4443  0557                     i1l501:
  4444  0557  0857               	movf	___fladd@b+3,w
  4445  0558  0456               	iorwf	___fladd@b+2,w
  4446  0559  0455               	iorwf	___fladd@b+1,w
  4447  055A  0454               	iorwf	___fladd@b,w
  4448  055B  1D03               	skipz
  4449  055C  2D5E               	goto	u192_21
  4450  055D  2D5F               	goto	u192_20
  4451  055E                     u192_21:
  4452  055E  2D8B               	goto	i1l1601
  4453  055F                     u192_20:
  4454  055F                     i1l1581:
  4455  055F  0867               	movf	___fladd@grs,w
  4456  0560  1D03               	btfss	3,2
  4457  0561  2D63               	goto	u193_21
  4458  0562  2D64               	goto	u193_20
  4459  0563                     u193_21:
  4460  0563  2D8B               	goto	i1l1601
  4461  0564                     u193_20:
  4462  0564                     i1l1583:
  4463  0564  3000               	movlw	0
  4464  0565  00D7               	movwf	?___fladd+3
  4465  0566  3000               	movlw	0
  4466  0567  00D6               	movwf	?___fladd+2
  4467  0568  3000               	movlw	0
  4468  0569  00D5               	movwf	?___fladd+1
  4469  056A  3000               	movlw	0
  4470  056B  00D4               	movwf	?___fladd
  4471  056C  2E09               	goto	i1l493
  4472  056D                     i1l1587:
  4473  056D  3001               	movlw	1
  4474  056E  00DC               	movwf	??___fladd
  4475  056F                     u194_25:
  4476  056F  1003               	clrc
  4477  0570  0DD4               	rlf	___fladd@b,f
  4478  0571  0DD5               	rlf	___fladd@b+1,f
  4479  0572  0DD6               	rlf	___fladd@b+2,f
  4480  0573  0DD7               	rlf	___fladd@b+3,f
  4481  0574  0BDC               	decfsz	??___fladd,f
  4482  0575  2D6F               	goto	u194_25
  4483  0576                     i1l1589:
  4484  0576  1FE7               	btfss	___fladd@grs,7
  4485  0577  2D79               	goto	u195_21
  4486  0578  2D7A               	goto	u195_20
  4487  0579                     u195_21:
  4488  0579  2D7B               	goto	i1l505
  4489  057A                     u195_20:
  4490  057A                     i1l1591:
  4491  057A  1454               	bsf	___fladd@b,0
  4492  057B                     i1l505:
  4493  057B  1C67               	btfss	___fladd@grs,0
  4494  057C  2D7E               	goto	u196_21
  4495  057D  2D7F               	goto	u196_20
  4496  057E                     u196_21:
  4497  057E  2D82               	goto	i1l1595
  4498  057F                     u196_20:
  4499  057F                     i1l1593:
  4500  057F  1403               	setc
  4501  0580  0DE7               	rlf	___fladd@grs,f
  4502  0581  2D84               	goto	i1l1597
  4503  0582                     i1l1595:
  4504  0582  1003               	clrc
  4505  0583  0DE7               	rlf	___fladd@grs,f
  4506  0584                     i1l1597:
  4507  0584  0866               	movf	___fladd@bexp,w
  4508  0585  1903               	btfsc	3,2
  4509  0586  2D88               	goto	u197_21
  4510  0587  2D89               	goto	u197_20
  4511  0588                     u197_21:
  4512  0588  2D8B               	goto	i1l1601
  4513  0589                     u197_20:
  4514  0589                     i1l1599:
  4515  0589  3001               	movlw	1
  4516  058A  02E6               	subwf	___fladd@bexp,f
  4517  058B                     i1l1601:
  4518  058B  1FD6               	btfss	___fladd@b+2,7
  4519  058C  2D8E               	goto	u198_21
  4520  058D  2D8F               	goto	u198_20
  4521  058E                     u198_21:
  4522  058E  2D6D               	goto	i1l1587
  4523  058F                     u198_20:
  4524  058F                     i1l1603:
  4525  058F  01E5               	clrf	___fladd@aexp
  4526  0590                     i1l1605:
  4527  0590  1FE7               	btfss	___fladd@grs,7
  4528  0591  2D93               	goto	u199_21
  4529  0592  2D94               	goto	u199_20
  4530  0593                     u199_21:
  4531  0593  2DA2               	goto	i1l1613
  4532  0594                     u199_20:
  4533  0594                     i1l1607:
  4534  0594  0867               	movf	___fladd@grs,w
  4535  0595  397F               	andlw	127
  4536  0596  1903               	btfsc	3,2
  4537  0597  2D99               	goto	u200_21
  4538  0598  2D9A               	goto	u200_20
  4539  0599                     u200_21:
  4540  0599  2D9D               	goto	i1l511
  4541  059A                     u200_20:
  4542  059A                     i1l1609:
  4543  059A  01E5               	clrf	___fladd@aexp
  4544  059B  0AE5               	incf	___fladd@aexp,f
  4545  059C  2DA2               	goto	i1l1613
  4546  059D                     i1l511:
  4547  059D  1C54               	btfss	___fladd@b,0
  4548  059E  2DA0               	goto	u201_21
  4549  059F  2DA1               	goto	u201_20
  4550  05A0                     u201_21:
  4551  05A0  2DA2               	goto	i1l1613
  4552  05A1                     u201_20:
  4553  05A1  2D9A               	goto	i1l1609
  4554  05A2                     i1l1613:
  4555  05A2  0865               	movf	___fladd@aexp,w
  4556  05A3  1903               	btfsc	3,2
  4557  05A4  2DA6               	goto	u202_21
  4558  05A5  2DA7               	goto	u202_20
  4559  05A6                     u202_21:
  4560  05A6  2DDB               	goto	i1l514
  4561  05A7                     u202_20:
  4562  05A7                     i1l1615:
  4563  05A7  3001               	movlw	1
  4564  05A8  07D4               	addwf	___fladd@b,f
  4565  05A9  3000               	movlw	0
  4566  05AA  1803               	skipnc
  4567  05AB  3001               	movlw	1
  4568  05AC  07D5               	addwf	___fladd@b+1,f
  4569  05AD  3000               	movlw	0
  4570  05AE  1803               	skipnc
  4571  05AF  3001               	movlw	1
  4572  05B0  07D6               	addwf	___fladd@b+2,f
  4573  05B1  3000               	movlw	0
  4574  05B2  1803               	skipnc
  4575  05B3  3001               	movlw	1
  4576  05B4  07D7               	addwf	___fladd@b+3,f
  4577  05B5                     i1l1617:
  4578  05B5  1C57               	btfss	___fladd@b+3,0
  4579  05B6  2DB8               	goto	u203_21
  4580  05B7  2DB9               	goto	u203_20
  4581  05B8                     u203_21:
  4582  05B8  2DDB               	goto	i1l514
  4583  05B9                     u203_20:
  4584  05B9                     i1l1619:
  4585  05B9  0854               	movf	___fladd@b,w
  4586  05BA  00DC               	movwf	??___fladd
  4587  05BB  0855               	movf	___fladd@b+1,w
  4588  05BC  00DD               	movwf	??___fladd+1
  4589  05BD  0856               	movf	___fladd@b+2,w
  4590  05BE  00DE               	movwf	??___fladd+2
  4591  05BF  0857               	movf	___fladd@b+3,w
  4592  05C0  00DF               	movwf	??___fladd+3
  4593  05C1  3001               	movlw	1
  4594  05C2  00E0               	movwf	??___fladd+4
  4595  05C3                     u204_25:
  4596  05C3  0D5F               	rlf	??___fladd+3,w
  4597  05C4  0CDF               	rrf	??___fladd+3,f
  4598  05C5  0CDE               	rrf	??___fladd+2,f
  4599  05C6  0CDD               	rrf	??___fladd+1,f
  4600  05C7  0CDC               	rrf	??___fladd,f
  4601  05C8                     u204_20:
  4602  05C8  0BE0               	decfsz	??___fladd+4,f
  4603  05C9  2DC3               	goto	u204_25
  4604  05CA  085F               	movf	??___fladd+3,w
  4605  05CB  00D7               	movwf	___fladd@b+3
  4606  05CC  085E               	movf	??___fladd+2,w
  4607  05CD  00D6               	movwf	___fladd@b+2
  4608  05CE  085D               	movf	??___fladd+1,w
  4609  05CF  00D5               	movwf	___fladd@b+1
  4610  05D0  085C               	movf	??___fladd,w
  4611  05D1  00D4               	movwf	___fladd@b
  4612  05D2  0A66               	incf	___fladd@bexp,w
  4613  05D3  1903               	btfsc	3,2
  4614  05D4  2DD6               	goto	u205_21
  4615  05D5  2DD7               	goto	u205_20
  4616  05D6                     u205_21:
  4617  05D6  2DDB               	goto	i1l514
  4618  05D7                     u205_20:
  4619  05D7                     i1l1621:
  4620  05D7  3001               	movlw	1
  4621  05D8  00DC               	movwf	??___fladd
  4622  05D9  085C               	movf	??___fladd,w
  4623  05DA  07E6               	addwf	___fladd@bexp,f
  4624  05DB                     i1l514:
  4625  05DB  0A66               	incf	___fladd@bexp,w
  4626  05DC  1903               	btfsc	3,2
  4627  05DD  2DDF               	goto	u206_21
  4628  05DE  2DE0               	goto	u206_20
  4629  05DF                     u206_21:
  4630  05DF  2DE5               	goto	i1l1625
  4631  05E0                     u206_20:
  4632  05E0                     i1l1623:
  4633  05E0  0866               	movf	___fladd@bexp,w
  4634  05E1  1D03               	btfss	3,2
  4635  05E2  2DE4               	goto	u207_21
  4636  05E3  2DE5               	goto	u207_20
  4637  05E4                     u207_21:
  4638  05E4  2DF3               	goto	i1l1631
  4639  05E5                     u207_20:
  4640  05E5                     i1l1625:
  4641  05E5  3000               	movlw	0
  4642  05E6  00D7               	movwf	___fladd@b+3
  4643  05E7  3000               	movlw	0
  4644  05E8  00D6               	movwf	___fladd@b+2
  4645  05E9  3000               	movlw	0
  4646  05EA  00D5               	movwf	___fladd@b+1
  4647  05EB  3000               	movlw	0
  4648  05EC  00D4               	movwf	___fladd@b
  4649  05ED                     i1l1627:
  4650  05ED  0866               	movf	___fladd@bexp,w
  4651  05EE  1D03               	btfss	3,2
  4652  05EF  2DF1               	goto	u208_21
  4653  05F0  2DF2               	goto	u208_20
  4654  05F1                     u208_21:
  4655  05F1  2DF3               	goto	i1l1631
  4656  05F2                     u208_20:
  4657  05F2                     i1l1629:
  4658  05F2  01E4               	clrf	___fladd@signs
  4659  05F3                     i1l1631:
  4660  05F3  1C66               	btfss	___fladd@bexp,0
  4661  05F4  2DF6               	goto	u209_21
  4662  05F5  2DF7               	goto	u209_20
  4663  05F6                     u209_21:
  4664  05F6  2DF9               	goto	i1l1635
  4665  05F7                     u209_20:
  4666  05F7                     i1l1633:
  4667  05F7  17D6               	bsf	___fladd@b+2,7
  4668  05F8  2DFD               	goto	i1l522
  4669  05F9                     i1l1635:
  4670  05F9  307F               	movlw	127
  4671  05FA  00DC               	movwf	??___fladd
  4672  05FB  085C               	movf	??___fladd,w
  4673  05FC  05D6               	andwf	___fladd@b+2,f
  4674  05FD                     i1l522:
  4675  05FD  0866               	movf	___fladd@bexp,w
  4676  05FE  00DC               	movwf	??___fladd
  4677  05FF  1003               	clrc
  4678  0600  0C5C               	rrf	??___fladd,w
  4679  0601  00DD               	movwf	??___fladd+1
  4680  0602  085D               	movf	??___fladd+1,w
  4681  0603  00D7               	movwf	___fladd@b+3
  4682  0604                     i1l1637:
  4683  0604  1FE4               	btfss	___fladd@signs,7
  4684  0605  2E07               	goto	u210_21
  4685  0606  2E08               	goto	u210_20
  4686  0607                     u210_21:
  4687  0607  2E09               	goto	i1l523
  4688  0608                     u210_20:
  4689  0608                     i1l1639:
  4690  0608  17D7               	bsf	___fladd@b+3,7
  4691  0609                     i1l523:
  4692  0609                     i1l493:
  4693  0609  0008               	return
  4694  060A                     __end_of___fladd:
  4695  007E                     btemp	set	126	;btemp
  4696  007E                     wtemp0	set	126
  4697                           
  4698                           	psect	idloc
  4699                           
  4700                           ;Config register IDLOC0 @ 0x2000
  4701                           ;	unspecified, using default values
  4702  2000                     	org	8192
  4703  2000  3FFF               	dw	16383
  4704                           
  4705                           ;Config register IDLOC1 @ 0x2001
  4706                           ;	unspecified, using default values
  4707  2001                     	org	8193
  4708  2001  3FFF               	dw	16383
  4709                           
  4710                           ;Config register IDLOC2 @ 0x2002
  4711                           ;	unspecified, using default values
  4712  2002                     	org	8194
  4713  2002  3FFF               	dw	16383
  4714                           
  4715                           ;Config register IDLOC3 @ 0x2003
  4716                           ;	unspecified, using default values
  4717  2003                     	org	8195
  4718  2003  3FFF               	dw	16383
  4719                           
  4720                           	psect	config
  4721                           
  4722                           ;Config register CONFIG1 @ 0x2007
  4723                           ;	Oscillator Selection bits
  4724                           ;	FOSC = INTRC_NOCLKOUT, INTOSCIO oscillator: I/O function on RA6/OSC2/CLKOUT pin, I/O f
      +                          unction on RA7/OSC1/CLKIN
  4725                           ;	Watchdog Timer Enable bit
  4726                           ;	WDTE = OFF, WDT disabled and can be enabled by SWDTEN bit of the WDTCON register
  4727                           ;	Power-up Timer Enable bit
  4728                           ;	PWRTE = OFF, PWRT disabled
  4729                           ;	RE3/MCLR pin function select bit
  4730                           ;	MCLRE = OFF, RE3/MCLR pin function is digital input, MCLR internally tied to VDD
  4731                           ;	Code Protection bit
  4732                           ;	CP = OFF, Program memory code protection is disabled
  4733                           ;	Data Code Protection bit
  4734                           ;	CPD = OFF, Data memory code protection is disabled
  4735                           ;	Brown Out Reset Selection bits
  4736                           ;	BOREN = OFF, BOR disabled
  4737                           ;	Internal External Switchover bit
  4738                           ;	IESO = OFF, Internal/External Switchover mode is disabled
  4739                           ;	Fail-Safe Clock Monitor Enabled bit
  4740                           ;	FCMEN = OFF, Fail-Safe Clock Monitor is disabled
  4741                           ;	Low Voltage Programming Enable bit
  4742                           ;	LVP = OFF, RB3 pin has digital I/O, HV on MCLR must be used for programming
  4743                           ;	In-Circuit Debugger Mode bit
  4744                           ;	DEBUG = 0x1, unprogrammed default
  4745  2007                     	org	8199
  4746  2007  20D4               	dw	8404
  4747                           
  4748                           ;Config register CONFIG2 @ 0x2008
  4749                           ;	Brown-out Reset Selection bit
  4750                           ;	BOR4V = BOR40V, Brown-out Reset set to 4.0V
  4751                           ;	Flash Program Memory Self Write Enable bits
  4752                           ;	WRT = OFF, Write protection off
  4753  2008                     	org	8200
  4754  2008  3FFF               	dw	16383

Data Sizes:
    Strings     0
    Constant    0
    Data        0
    BSS         8
    Persistent  0
    Stack       0

Auto Spaces:
    Space          Size  Autos    Used
    COMMON           14     14      14
    BANK0            80     79      79
    BANK1            80     17      25
    BANK3            96      0       0
    BANK2            96      0       0

Pointer List with Targets:

    None.

Critical Paths under _main in COMMON

    None.

Critical Paths under _isr in COMMON

    _map->___xxtofl
    ___fltol->___xxtofl
    ___flmul->___xxtofl
    ___fldiv->___xxtofl
    ___fladd->___xxtofl

Critical Paths under _main in BANK0

    None.

Critical Paths under _isr in BANK0

    _isr->_map
    _map->___fltol
    ___fltol->___fladd
    ___flmul->___fldiv
    ___fladd->___flmul

Critical Paths under _main in BANK1

    None.

Critical Paths under _isr in BANK1

    _isr->_map
    _map->___fltol

Critical Paths under _main in BANK3

    None.

Critical Paths under _isr in BANK3

    None.

Critical Paths under _main in BANK2

    None.

Critical Paths under _isr in BANK2

    None.

Call Graph Tables:

 ---------------------------------------------------------------------------------
 (Depth) Function   	        Calls       Base Space   Used Autos Params    Refs
 ---------------------------------------------------------------------------------
 (0) _main                                                 1     1      0       0
                                             16 BANK1      1     1      0
                              _setup
 ---------------------------------------------------------------------------------
 (1) _setup                                                0     0      0       0
 ---------------------------------------------------------------------------------
 Estimated maximum stack depth 1
 ---------------------------------------------------------------------------------
 (Depth) Function   	        Calls       Base Space   Used Autos Params    Refs
 ---------------------------------------------------------------------------------
 (2) _isr                                                  5     5      0    7949
                                             11 BANK1      5     5      0
                                _map
 ---------------------------------------------------------------------------------
 (3) _map                                                  7     1      6    7949
                                             78 BANK0      1     1      0
                                              5 BANK1      6     0      6
                            ___fladd
                            ___fldiv
                            ___flmul
                            ___fltol
                           ___xxtofl
 ---------------------------------------------------------------------------------
 (4) ___xxtofl                                            14    10      4     626
                                              0 COMMON    14    10      4
 ---------------------------------------------------------------------------------
 (4) ___fltol                                             11     7      4     305
                                             72 BANK0      6     2      4
                                              0 BANK1      5     5      0
                            ___fladd (ARG)
                            ___fldiv (ARG)
                            ___flmul (ARG)
                           ___xxtofl (ARG)
 ---------------------------------------------------------------------------------
 (4) ___flmul                                             26    18      8    2417
                                             26 BANK0     26    18      8
                          __Umul8_16
                            ___fldiv (ARG)
                           ___xxtofl (ARG)
 ---------------------------------------------------------------------------------
 (5) __Umul8_16                                            9     7      2     799
                                              0 COMMON     9     7      2
 ---------------------------------------------------------------------------------
 (4) ___fldiv                                             26    18      8    1273
                                              0 BANK0     26    18      8
                           ___xxtofl (ARG)
 ---------------------------------------------------------------------------------
 (4) ___fladd                                             20    12      8    2262
                                             52 BANK0     20    12      8
                            ___fldiv (ARG)
                            ___flmul (ARG)
                           ___xxtofl (ARG)
 ---------------------------------------------------------------------------------
 Estimated maximum stack depth 5
 ---------------------------------------------------------------------------------

 Call Graph Graphs:

 _main (ROOT)
   _setup

 _isr (ROOT)
   _map
     ___fladd
       ___fldiv (ARG)
         ___xxtofl (ARG)
       ___flmul (ARG)
         __Umul8_16
         ___fldiv (ARG)
         ___xxtofl (ARG)
       ___xxtofl (ARG)
     ___fldiv
     ___flmul
     ___fltol
       ___fladd (ARG)
       ___fldiv (ARG)
       ___flmul (ARG)
       ___xxtofl (ARG)
     ___xxtofl

 Address spaces:
Name               Size   Autos  Total    Cost      Usage
BITCOMMON            E      0       0       0        0.0%
EEDATA             100      0       0       0        0.0%
NULL                 0      0       0       0        0.0%
CODE                 0      0       0       0        0.0%
COMMON               E      E       E       1      100.0%
BITSFR0              0      0       0       1        0.0%
SFR0                 0      0       0       1        0.0%
BITSFR1              0      0       0       2        0.0%
SFR1                 0      0       0       2        0.0%
STACK                0      0       0       2        0.0%
ABS                  0      0      76       3        0.0%
BITBANK0            50      0       0       4        0.0%
BITSFR3              0      0       0       4        0.0%
SFR3                 0      0       0       4        0.0%
BANK0               50     4F      4F       5       98.8%
BITSFR2              0      0       0       5        0.0%
SFR2                 0      0       0       5        0.0%
BITBANK1            50      0       0       6        0.0%
BANK1               50     11      19       7       31.2%
BITBANK3            60      0       0       8        0.0%
BANK3               60      0       0       9        0.0%
BITBANK2            60      0       0      10        0.0%
BANK2               60      0       0      11        0.0%
DATA                 0      0      76      12        0.0%


Microchip Technology PIC Macro Assembler V2.35 build 20211206165544 
Symbol Table                                                                                   Fri Apr 29 23:16:50 2022

           ___fldiv@aexp 0039             ___fldiv@bexp 0038             ___fldiv@sign 0031  
                     l95 0CCC                       l97 0CD0                       l98 0CE7  
    __Umul8_16@word_mpld 0076                      _PR2 0092                      _map 0D84  
                    _isr 0EF0             ___flmul@aexp 004C             ___flmul@bexp 004D  
           ___flmul@sign 0047             ___flmul@temp 0052             ___flmul@prod 004E  
           ___fltol@exp1 006D                     l2001 0CAA                     l2011 0CBA  
                   l2003 0CAD                     l2021 0CC8                     l2013 0CC0  
                   l2005 0CAE                     l2031 0CE3                     l2023 0CCB  
                   l2015 0CC4                     l2007 0CB2                     l2033 0CE6  
                   l2025 0CDB                     l2017 0CC6                     l2009 0CB6  
                   l2027 0CDF                     l2019 0CC7                     l2029 0CE0  
                   l2081 0C30                     l2091 0C5A                     l2083 0C35  
                   l2093 0C61                     l2085 0C3B                     l2095 0C6E  
                   l2087 0C46                     l2097 0C72                     l2089 0C4D  
                   l2099 0C75                     l1971 0C7C                     l1981 0C8A  
                   l1973 0C80                     ?_map 00A5                     l1991 0C9D  
                   l1983 0C8D                     l1975 0C81                     l1993 0CA0  
                   l1985 0C90                     l1977 0C87                     l1995 0CA3  
                   l1987 0C95                     l1979 0C88                     l1997 0CA6  
                   l1989 0C98                     l1999 0CA9                     ?_isr 0070  
                   _CCPR 00B7                     u3000 0C46                     u3001 0C45  
                   u3010 0C5A                     u3011 0C59                     u3020 0C6E  
                   u3021 0C6D                     u2910 0CD0                     u2911 0CCF  
                   u2990 0C3B                     u2991 0C3A                     i1l77 0FF5  
                   _TMR0 0001                     _main 0C30                     map@x 006E  
                   btemp 007E                     start 0010          ___fldiv@new_exp 0032  
                  ??_map 007E                    ??_isr 00AB            ___fltol@sign1 006C  
        __end_of___fladd 060A                    ?_main 0070          __end_of___fldiv 07E7  
        __end_of___flmul 0382          __end_of___fltol 0D84                    _ANSEL 0188  
                  i1l101 0E35                    i1l501 0557                    i1l511 059D  
                  i1l505 057B                    i1l522 05FD                    i1l514 05DB  
                  i1l523 0609                    i1l380 0D6E                    i1l620 0E58  
                  i1l373 0D83                    i1l622 0EEF                    i1l383 0D83  
                  i1l480 03E5                    i1l560 07DA                    i1l552 0758  
                  i1l536 0666                    i1l633 0EB9                    i1l538 07E6  
                  i1l634 0EC5                    i1l626 0E9D                    i1l484 048C  
                  i1l493 0609                    i1l486 0463                    i1l558 07CA  
                  i1l582 02ED                    i1l576 0381                    i1l595 0C1D  
                  i1l588 0375                    i1l597 0C2F                    _PORTA 0005  
                  _PORTD 0008                    _TRISA 0085                    _TRISD 0088  
                  map@x0 00A5                    map@x1 00A6                    map@y0 00A7  
                  map@y1 00A9                    _setup 0C7C                    pclath 000A  
                  status 0003                    wtemp0 007E          __initialization 0013  
           __end_of_main 0C7C                   ??_main 00B0                   _ADRESH 001E  
                 _CCPR1L 0015                   _CCPR2L 001B                   _CCPR_2 00B5  
                 ?_setup 0070                   _ANSELH 0189                   i1l1401 0C13  
                 i1l2041 0F01                   i1l1403 0C17                   i1l1411 0CE8  
                 i1l2051 0F64                   i1l2043 0F1C                   i1l1501 03FF  
                 i1l1405 0C26                   i1l1421 0D28                   i1l1413 0CF9  
                 i1l2061 0FBE                   i1l2053 0F72                   i1l2045 0F2A  
                 i1l2037 0EF0                   i1l1511 0413                   i1l1503 0403  
                 i1l1407 0C2B                   i1l1423 0D30                   i1l2071 0FE3  
                 i1l2055 0F83                   i1l2063 0FC4                   i1l2047 0F3C  
                 i1l2039 0EF6                   u200_20 059A                   u200_21 0599  
                 i1l1601 058B                   i1l1521 0427                   i1l1513 0417  
                 i1l1505 0407                   i1l1441 0D5B                   i1l1433 0D3E  
                 i1l1425 0D32                   i1l1417 0D02                   i1l2073 0FE7  
                 i1l2049 0F49                   i1l2057 0F96                   i1l2065 0FC6  
                 i1l1603 058F                   i1l1531 0467                   i1l1523 042B  
                 i1l1515 041B                   i1l1507 040B                   i1l1451 038F  
                 i1l1443 0D73                   i1l1427 0D36                   i1l1435 0D54  
                 i1l1419 0D27                   i1l2075 0FEE                   i1l2067 0FCA  
                 i1l2059 0FA3                   i1l1621 05D7                   i1l1613 05A2  
                 i1l1605 0590                   i1l1541 0480                   i1l1533 0470  
                 i1l1517 041F                   i1l1509 040F                   i1l1525 042F  
                 i1l1461 03A6                   i1l1453 0393                   i1l1701 06B7  
                 i1l1445 0D78                   i1l2077 0FF1                   i1l2069 0FD6  
                 i1l1631 05F3                   i1l1623 05E0                   i1l1615 05A7  
                 i1l1607 0594                   i1l1551 049E                   i1l1535 0472  
                 i1l1543 0484                   i1l1527 0430                   i1l1519 0423  
                 i1l1471 03BC                   i1l1463 03A7                   i1l1455 0394  
                 i1l1447 0382                   i1l1711 06DC                   i1l1703 06BF  
                 u201_20 05A1                   i1l1633 05F7                   i1l1625 05E5  
                 i1l1617 05B5                   u201_21 05A0                   i1l1609 059A  
                 i1l1561 04C8                   i1l1553 04B5                   i1l1545 0490  
                 i1l1537 0476                   i1l1529 0447                   i1l1481 03CD  
                 i1l1473 03BD                   i1l1457 0399                   i1l1465 03A9  
                 i1l1449 0389                   i1l1721 0707                   i1l1713 06DD  
                 i1l1705 06C1                   i1l1641 060A                   i1l1801 004F  
                 i1l1635 05F9                   i1l1627 05ED                   i1l1619 05B9  
                 i1l1571 04F1                   i1l1563 04CC                   i1l1555 04B9  
                 i1l1547 0495                   i1l1539 0477                   i1l1491 03EB  
                 i1l1483 03D2                   i1l1475 03C3                   i1l1467 03B1  
                 i1l1459 039E                   i1l1731 0724                   i1l1707 06C6  
                 i1l1715 06E6                   i1l1723 070B                   i1l1651 0621  
                 i1l1643 0611                   i1l1811 0064                   i1l1803 0054  
                 i1l1637 0604                   i1l1629 05F2                   i1l1581 055F  
                 i1l1573 052F                   i1l1565 04CD                   i1l1557 04BD  
                 i1l1493 03EF                   i1l1485 03DA                   i1l1477 03C7  
                 i1l1469 03B6                   i1l1741 073C                   i1l1733 0728  
                 i1l1725 0711                   i1l1717 06F8                   i1l1709 06D8  
                 i1l1661 0639                   i1l1653 0626                   i1l1645 0617  
                 i1l1397 0C0A                   i1l1901 0328                   i1l1821 0080  
                 i1l1813 0069                   i1l1805 005A                   i1l1639 0608  
                 i1l1591 057A                   i1l1583 0564                   i1l1575 0535  
                 i1l1567 04D6                   i1l1559 04C6                   i1l1495 03F3  
                 i1l1487 03DB                   i1l1479 03C8                   i1l1751 075D  
                 i1l1743 073D                   i1l1735 0729                   i1l1727 0719  
                 i1l1719 06F9                   i1l1671 064E                   i1l1663 063E  
                 i1l1655 062E                   i1l1647 061B                   i1l1399 0C0C  
                 i1l1911 035B                   i1l1903 0335                   i1l1831 00AB  
                 i1l1823 0085                   i1l1815 0071                   i1l1807 005E  
                 u210_20 0608                   u202_20 05A7                   u210_21 0607  
                 u202_21 05A6                   i1l1593 057F                   i1l1577 053A  
                 i1l1569 04DB                   i1l1497 03F7                   i1l1489 03DD  
                 i1l1753 0762                   i1l1761 0793                   i1l1745 0741  
                 i1l1737 0732                   i1l1729 071B                   i1l1681 066E  
                 i1l1673 0653                   i1l1665 0644                   i1l1657 062F  
                 i1l1649 061C                   i1l1913 0369                   i1l1905 0340  
                 i1l1841 0148                   i1l1833 00C8                   i1l1817 0073  
                 i1l1809 005F                   i1l1595 0582                   i1l1587 056D  
                 i1l1579 0549                   i1l1499 03FB                   i1l1771 07C9  
                 i1l1763 07A0                   i1l1755 0770                   i1l1747 0755  
                 i1l1739 0738                   i1l1691 068C                   i1l1683 067A  
                 i1l1675 065B                   i1l1667 0648                   i1l1659 0631  
                 i1l1915 036D                   i1l1907 034F                   i1l1851 01AB  
                 i1l1843 0151                   i1l1835 00E4                   i1l1827 008E  
                 i1l1819 007B                   i1l1931 0E60                   i1l1923 0E37  
                 i1l1597 0584                   i1l1589 0576                   i1l1773 07D0  
                 i1l1765 07AE                   i1l1757 0774                   i1l1685 067E  
                 i1l1677 065C                   i1l1669 0649                   i1l1917 036E  
                 i1l1909 0359                   i1l1861 024B                   i1l1853 01C4  
                 i1l1845 0161                   i1l1837 0110                   i1l1829 009E  
                 i1l1941 0E82                   i1l1925 0E3C                   i1l1599 0589  
                 i1l1775 07D4                   i1l1767 07BD                   i1l1759 078D  
                 i1l1695 0695                   i1l1679 065E                   i1l1919 0379  
                 i1l1871 02B9                   i1l1863 0271                   i1l1855 01E1  
                 i1l1847 017E                   i1l1839 012C                   i1l1791 0033  
                 i1l1783 0021                   i1l1951 0EB3                   i1l1943 0E86  
                 i1l1935 0E69                   i1l1927 0E40                   u203_20 05B9  
                 u211_20 061B                   u203_21 05B8                   i1l1777 07D6  
                 i1l1769 07C1                   i1l1697 06A7                   i1l1689 0687  
                 u211_21 061A                   i1l1881 02D1                   i1l1873 02BD  
                 i1l1865 0299                   i1l1857 020E                   i1l1849 018E  
                 i1l1793 0038                   i1l1785 0028                   i1l1961 0EE6  
                 i1l1953 0EBD                   i1l1945 0E94                   i1l1937 0E6E  
                 i1l1929 0E50                   i1l1699 06AF                   i1l1891 02F2  
                 i1l1883 02D2                   i1l1875 02BE                   i1l1867 02A2  
                 i1l1859 021E                   i1l1795 003D                   i1l1787 002E  
                 i1l1963 0EE7                   i1l1955 0EC7                   i1l1947 0EA4  
                 i1l1939 0E7B                   i1l1893 02F7                   i1l1885 02D6  
                 i1l1877 02C7                   i1l1869 02B0                   i1l1797 0045  
                 i1l1789 0032                   i1l1957 0EDD                   i1l1949 0EAF  
                 i1l1895 0305                   i1l1887 02EA                   i1l1879 02CD  
                 i1l1799 0047                   i1l1959 0EE2                   i1l1967 0D87  
                 u204_20 05C8                   u212_20 0621                   u212_21 0620  
                 i1l1897 0309                   i1l1899 0322                   u204_25 05C3  
                 u220_25 06C8                   u205_20 05D7                   u213_20 0626  
                 u205_21 05D6                   u213_21 0625                   u221_25 06D1  
                 u206_20 05E0                   u230_20 073C                   u222_20 06DC  
                 u214_20 0648                   u206_21 05DF                   u230_21 073B  
                 u222_21 06DB                   u214_21 0647                   u207_20 05E5  
                 u231_20 0741                   u215_20 064E                   u207_21 05E4  
                 u231_21 0740                   u215_21 064D                   u223_25 06DF  
                 u208_20 05F2                   u232_20 0755                   u224_20 06F8  
                 u216_20 0653                   u152_20 0C17                   u240_20 0032  
                 u160_20 0D53                   u208_21 05F1                   u232_21 0754  
                 u224_21 06F7                   u216_21 0652                   u152_21 0C16  
                 u240_21 0031                   u160_21 0D52                   u224_25 06F4  
                 u209_20 05F7                   u233_20 075C                   u225_20 0711  
                 u217_20 066E                   u241_20 0038                   u161_20 0D5A  
                 u209_21 05F6                   u233_21 075B                   u225_21 0710  
                 u217_21 066D                   u241_21 0037                   u161_21 0D59  
                 u153_25 0C1E                   u170_20 03CD                   u234_20 0762  
                 u226_20 0719                   u218_20 068C                   u154_20 0C2B  
                 u242_20 003D                   u170_21 03CC                   u234_21 0761  
                 u226_21 0718                   u218_21 068B                   u154_21 0C2A  
                 u250_21 011E                   u242_21 003C                   u250_22 0125  
                 u250_23 012C                   u162_25 0D5F                   u171_20 03D2  
                 u235_20 0774                   u219_20 06C6                   u243_20 005E  
                 u163_20 0D73                   u155_20 0CF9                   u171_21 03D1  
                 u235_21 0773                   u219_21 06C5                   u251_21 013A  
                 u243_21 005D                   u163_21 0D72                   u155_21 0CF8  
                 u251_22 0141                   u251_23 0148                   u227_25 071D  
                 u180_20 048C                   u172_20 03EB                   u236_20 0783  
                 u228_20 0728                   u244_20 0064                   u164_20 0D78  
                 u156_20 0D1E                   u180_21 048B                   u172_21 03EA  
                 u228_21 0727                   u260_21 0263                   u244_21 0063  
                 u164_21 0D77                   u260_22 026A                   u260_23 0271  
                 u236_25 077E                   u252_25 014A                   u156_25 0D19  
                 u181_20 0490                   u173_20 03EF                   u165_20 0393  
                 u237_20 07A0                   u261_20 027F                   u245_20 0069  
                 u157_20 0D36                   u181_21 048F                   u173_21 03EE  
                 u165_21 0392                   u237_21 079F                   u253_21 0170  
                 u245_21 0068                   u157_21 0D35                   u253_22 0177  
                 u253_23 017E                   u237_25 079C                   u229_25 072B  
                 u261_25 027A                   u190_20 051C                   u182_20 0495  
                 u174_20 0447                   u166_20 0399                   u238_20 07BD  
                 u270_20 02F1                   u246_20 0080                   u158_20 0D3D  
                 u190_21 051D                   u182_21 0494                   u174_21 0446  
                 u166_21 0398                   u238_21 07BC                   u270_21 02F0  
                 u262_21 028B                   u254_21 019D                   u246_21 007F  
                 u158_21 0D3C                   u190_22 0522                   u262_22 0292  
                 u254_22 01A4                   u190_23 0523                   u262_23 0299  
                 u254_23 01AB                   u174_25 0443                   u238_25 07B9  
                 u191_20 053A                   u175_20 0452                   u167_20 039E  
                 u239_20 07D4                   u271_20 02F7                   u247_20 0085  
                 u191_21 0539                   u183_21 04A7                   u175_21 0450  
                 u167_21 039D                   u239_21 07D3                   u271_21 02F6  
                 u247_21 0084                   u183_22 04AE                   u183_23 04B5  
                 u263_25 029B                   u255_25 01AD                   u159_25 0D3F  
                 u192_20 055F                   u184_20 04B9                   u176_20 0453  
                 u168_20 03BC                   u272_20 0309                   u192_21 055E  
                 u184_21 04B8                   u168_21 03BB                   u272_21 0308  
                 u256_21 01D3                   u248_21 00D6                   u256_22 01DA  
                 u248_22 00DD                   u256_23 01E1                   u248_23 00E4  
                 u264_25 02B2                   u280_25 0E73                   u193_20 0564  
                 u185_20 04BD                   u177_20 0467                   u169_20 03C7  
                 u273_20 0318                   u265_20 02BD                   u281_20 0E81  
                 u193_21 0563                   u185_21 04BC                   u177_21 0466  
                 u169_21 03C6                   u265_21 02BC                   u257_21 0200  
                 u249_21 00F2                   u281_21 0E80                   u257_22 0207  
                 u249_22 00F9                   u257_23 020E                   u249_23 0100  
                 u273_25 0313                   u186_20 04CC                   u178_20 0476  
                 u274_20 0335                   u290_20 0EE6                   u186_21 04CB  
                 u178_21 0475                   u274_21 0334                   u258_21 022D  
                 u290_21 0EE5                   u258_22 0234                   u258_23 023B  
                 u194_25 056F                   u274_25 0331                   u266_25 02C0  
                 u282_25 0E95                   u195_20 057A                   u275_20 034F  
                 u267_20 02D1                   u259_20 0257                   u283_20 0EA3  
                 u195_21 0579                   u275_21 034E                   u267_21 02D0  
                 u283_21 0EA2                   u187_25 04CF                   u179_25 0479  
                 u275_25 034B                   u259_25 0252                   u196_20 057F  
                 u188_20 04F1                   u276_20 036D                   u268_20 02D6  
                 u292_20 0EF6                   u196_21 057E                   u188_21 04F0  
                 u276_21 036C                   u268_21 02D5                   u292_21 0EF5  
                 u188_23 04ED                   u284_25 0EA8                   u197_20 0589  
                 u269_20 02EA                   u285_20 0EB3                   u277_20 0E3C  
                 u293_20 0F01                   u197_21 0588                   u189_21 0508  
                 u269_21 02E9                   u285_21 0EB2                   u277_21 0E3B  
                 u293_21 0F00                   u189_22 0509                   u189_23 050E  
                 u189_24 050F                   u189_25 0514                   u189_26 0515  
                 u198_20 058F                   u286_20 0EB9                   u278_20 0E40  
                 u294_20 0F49                   u198_21 058E                   u286_21 0EB8  
                 u278_21 0E3F                   u294_21 0F48                   u199_20 0594  
                 u287_20 0EBD                   u279_20 0E60                   u295_20 0FA3  
                 u199_21 0593                   u287_21 0EBC                   u279_21 0E5F  
                 u295_21 0FA2                   u288_20 0ED2                   u296_20 0FCA  
                 u296_21 0FC9                   u288_25 0ECD                   u289_20 0EE2  
                 u297_20 0FE3                   u289_21 0EE1                   u297_21 0FE2  
                 u297_25 0FDF                   u298_20 0FEE                   u298_21 0FED  
       __end_of___xxtofl 0EF0                ??___fladd 005C                ??___fldiv 0028  
              ??___flmul 0042                ??___fltol 00A0                   saved_w 007E  
           ___xxtofl@arg 007A             ___xxtofl@exp 0079             ___xxtofl@val 0070  
__end_of__initialization 001D               ___fltol@f1 0068           __pcstackCOMMON 0070  
          __end_of_setup 0CE8           _OPTION_REGbits 0081                  ??_setup 00B0  
             __pbssBANK1 00B1        __end_of__Umul8_16 0C30               __pmaintext 0C30  
             __pintentry 0004                  _CCP1CON 0017                  _CCP2CON 001D  
              ?___xxtofl 0070                  ___fladd 0382                  ___fldiv 060A  
                ___flmul 0021                  ___fltol 0CE8                  __ptext1 0C7C  
                __ptext2 0EF0                  __ptext3 0D84                  __ptext4 0E36  
                __ptext5 0CE8                  __ptext6 0021                  __ptext7 0C09  
                __ptext8 060A                  __ptext9 0382                _T2CONbits 0012  
             ??___xxtofl 0074                  _pulse_w 00B1     end_of_initialization 001D  
              _PORTCbits 0007              ___fladd@grs 0067            ___xxtofl@sign 0078  
              _TRISCbits 0087              ___fldiv@grs 0034              ___fldiv@rem 002D  
            ___flmul@grs 0048              _CCP1CONbits 0017              _CCP2CONbits 001D  
    start_initialization 0013              __end_of_map 0E36              __end_of_isr 1000  
              __Umul8_16 0C09                ___fladd@a 0058                ___fladd@b 0054  
              ___fldiv@a 0020                ___fldiv@b 0024                ___flmul@a 003E  
              ___flmul@b 003A                ___latbits 0002            __pcstackBANK0 0020  
          __pcstackBANK1 00A0                 ?___fladd 0054                 ?___fldiv 0020  
               ?___flmul 003A                 ?___fltol 0068               ?__Umul8_16 0070  
              _cont_tmr0 00B3        interrupt_function 0004                 _PIE1bits 008C  
               _PIR1bits 000C               _ADCON0bits 001F               _ADCON1bits 009F  
            ??__Umul8_16 0072                 ___xxtofl 0E36               _INTCONbits 000B  
               intlevel1 0000               _OSCCONbits 008F   __Umul8_16@multiplicand 0070  
          ___fladd@signs 0064             ___fladd@aexp 0065             ___fladd@bexp 0066  
   __Umul8_16@multiplier 0078        __Umul8_16@product 0074  
